	.file	"main.cpp"
	.intel_syntax noprefix
	.text
	.section	.text._ZNSt6vectorINSt7__cxx1112basic_stringIcSt11char_traitsIcESaIcEEESaIS5_EED2Ev,"axG",@progbits,_ZNSt6vectorINSt7__cxx1112basic_stringIcSt11char_traitsIcESaIcEEESaIS5_EED5Ev,comdat
	.align 2
	.p2align 4,,15
	.weak	_ZNSt6vectorINSt7__cxx1112basic_stringIcSt11char_traitsIcESaIcEEESaIS5_EED2Ev
	.type	_ZNSt6vectorINSt7__cxx1112basic_stringIcSt11char_traitsIcESaIcEEESaIS5_EED2Ev, @function
_ZNSt6vectorINSt7__cxx1112basic_stringIcSt11char_traitsIcESaIcEEESaIS5_EED2Ev:
.LFB3585:
	.cfi_startproc
	push	ebp
	.cfi_def_cfa_offset 8
	.cfi_offset 5, -8
	push	edi
	.cfi_def_cfa_offset 12
	.cfi_offset 7, -12
	push	esi
	.cfi_def_cfa_offset 16
	.cfi_offset 6, -16
	push	ebx
	.cfi_def_cfa_offset 20
	.cfi_offset 3, -20
	call	__x86.get_pc_thunk.bx
	add	ebx, OFFSET FLAT:_GLOBAL_OFFSET_TABLE_
	sub	esp, 12
	.cfi_def_cfa_offset 32
	mov	ebp, DWORD PTR 32[esp]
	mov	edi, DWORD PTR 4[ebp]
	mov	esi, DWORD PTR 0[ebp]
	cmp	edi, esi
	je	.L2
	.p2align 4,,10
	.p2align 3
.L6:
	mov	eax, DWORD PTR [esi]
	lea	edx, 8[esi]
	cmp	eax, edx
	je	.L3
	sub	esp, 12
	.cfi_def_cfa_offset 44
	add	esi, 24
	push	eax
	.cfi_def_cfa_offset 48
	call	_ZdlPv@PLT
	add	esp, 16
	.cfi_def_cfa_offset 32
	cmp	edi, esi
	jne	.L6
.L4:
	mov	esi, DWORD PTR 0[ebp]
.L2:
	test	esi, esi
	je	.L1
	sub	esp, 12
	.cfi_def_cfa_offset 44
	push	esi
	.cfi_def_cfa_offset 48
	call	_ZdlPv@PLT
	add	esp, 16
	.cfi_def_cfa_offset 32
.L1:
	add	esp, 12
	.cfi_remember_state
	.cfi_def_cfa_offset 20
	pop	ebx
	.cfi_restore 3
	.cfi_def_cfa_offset 16
	pop	esi
	.cfi_restore 6
	.cfi_def_cfa_offset 12
	pop	edi
	.cfi_restore 7
	.cfi_def_cfa_offset 8
	pop	ebp
	.cfi_restore 5
	.cfi_def_cfa_offset 4
	ret
	.p2align 4,,10
	.p2align 3
.L3:
	.cfi_restore_state
	add	esi, 24
	cmp	edi, esi
	jne	.L6
	jmp	.L4
	.cfi_endproc
.LFE3585:
	.size	_ZNSt6vectorINSt7__cxx1112basic_stringIcSt11char_traitsIcESaIcEEESaIS5_EED2Ev, .-_ZNSt6vectorINSt7__cxx1112basic_stringIcSt11char_traitsIcESaIcEEESaIS5_EED2Ev
	.weak	_ZNSt6vectorINSt7__cxx1112basic_stringIcSt11char_traitsIcESaIcEEESaIS5_EED1Ev
	.set	_ZNSt6vectorINSt7__cxx1112basic_stringIcSt11char_traitsIcESaIcEEESaIS5_EED1Ev,_ZNSt6vectorINSt7__cxx1112basic_stringIcSt11char_traitsIcESaIcEEESaIS5_EED2Ev
	.section	.text._ZNSt6vectorIlSaIlEED2Ev,"axG",@progbits,_ZNSt6vectorIlSaIlEED5Ev,comdat
	.align 2
	.p2align 4,,15
	.weak	_ZNSt6vectorIlSaIlEED2Ev
	.type	_ZNSt6vectorIlSaIlEED2Ev, @function
_ZNSt6vectorIlSaIlEED2Ev:
.LFB4454:
	.cfi_startproc
	push	ebx
	.cfi_def_cfa_offset 8
	.cfi_offset 3, -8
	call	__x86.get_pc_thunk.bx
	add	ebx, OFFSET FLAT:_GLOBAL_OFFSET_TABLE_
	sub	esp, 8
	.cfi_def_cfa_offset 16
	mov	eax, DWORD PTR 16[esp]
	mov	eax, DWORD PTR [eax]
	test	eax, eax
	je	.L13
	sub	esp, 12
	.cfi_def_cfa_offset 28
	push	eax
	.cfi_def_cfa_offset 32
	call	_ZdlPv@PLT
	add	esp, 16
	.cfi_def_cfa_offset 16
.L13:
	add	esp, 8
	.cfi_def_cfa_offset 8
	pop	ebx
	.cfi_restore 3
	.cfi_def_cfa_offset 4
	ret
	.cfi_endproc
.LFE4454:
	.size	_ZNSt6vectorIlSaIlEED2Ev, .-_ZNSt6vectorIlSaIlEED2Ev
	.weak	_ZNSt6vectorIlSaIlEED1Ev
	.set	_ZNSt6vectorIlSaIlEED1Ev,_ZNSt6vectorIlSaIlEED2Ev
	.section	.rodata.str1.4,"aMS",@progbits,1
	.align 4
.LC0:
	.string	"basic_string::_M_construct null not valid"
	.text
	.align 2
	.p2align 4,,15
	.type	_ZNSt7__cxx1112basic_stringIcSt11char_traitsIcESaIcEE12_M_constructIPcEEvT_S7_St20forward_iterator_tag.constprop.189, @function
_ZNSt7__cxx1112basic_stringIcSt11char_traitsIcESaIcEE12_M_constructIPcEEvT_S7_St20forward_iterator_tag.constprop.189:
.LFB4634:
	.cfi_startproc
	push	ebp
	.cfi_def_cfa_offset 8
	.cfi_offset 5, -8
	mov	ebp, edx
	push	edi
	.cfi_def_cfa_offset 12
	.cfi_offset 7, -12
	mov	edi, eax
	push	esi
	.cfi_def_cfa_offset 16
	.cfi_offset 6, -16
	push	ebx
	.cfi_def_cfa_offset 20
	.cfi_offset 3, -20
	call	__x86.get_pc_thunk.bx
	add	ebx, OFFSET FLAT:_GLOBAL_OFFSET_TABLE_
	sub	esp, 28
	.cfi_def_cfa_offset 48
	mov	eax, DWORD PTR gs:20
	mov	DWORD PTR 12[esp], eax
	xor	eax, eax
	test	ecx, ecx
	je	.L20
	test	edx, edx
	je	.L36
.L20:
	sub	ecx, ebp
	mov	esi, ecx
	mov	DWORD PTR 8[esp], ecx
	cmp	ecx, 15
	ja	.L37
	mov	eax, DWORD PTR [edi]
	cmp	ecx, 1
	jne	.L23
	movzx	edx, BYTE PTR 0[ebp]
	mov	BYTE PTR [eax], dl
	mov	esi, DWORD PTR 8[esp]
	mov	eax, DWORD PTR [edi]
.L24:
	mov	DWORD PTR 4[edi], esi
	mov	BYTE PTR [eax+esi], 0
	mov	eax, DWORD PTR 12[esp]
	xor	eax, DWORD PTR gs:20
	jne	.L38
	add	esp, 28
	.cfi_remember_state
	.cfi_def_cfa_offset 20
	pop	ebx
	.cfi_restore 3
	.cfi_def_cfa_offset 16
	pop	esi
	.cfi_restore 6
	.cfi_def_cfa_offset 12
	pop	edi
	.cfi_restore 7
	.cfi_def_cfa_offset 8
	pop	ebp
	.cfi_restore 5
	.cfi_def_cfa_offset 4
	ret
	.p2align 4,,10
	.p2align 3
.L23:
	.cfi_restore_state
	test	ecx, ecx
	je	.L24
	jmp	.L22
	.p2align 4,,10
	.p2align 3
.L37:
	sub	esp, 4
	.cfi_def_cfa_offset 52
	push	0
	.cfi_def_cfa_offset 56
	lea	eax, 16[esp]
	push	eax
	.cfi_def_cfa_offset 60
	push	edi
	.cfi_def_cfa_offset 64
	call	_ZNSt7__cxx1112basic_stringIcSt11char_traitsIcESaIcEE9_M_createERjj@PLT
	mov	edx, DWORD PTR 24[esp]
	add	esp, 16
	.cfi_def_cfa_offset 48
	mov	DWORD PTR [edi], eax
	mov	DWORD PTR 8[edi], edx
.L22:
	sub	esp, 4
	.cfi_def_cfa_offset 52
	push	esi
	.cfi_def_cfa_offset 56
	push	ebp
	.cfi_def_cfa_offset 60
	push	eax
	.cfi_def_cfa_offset 64
	call	memcpy@PLT
	mov	esi, DWORD PTR 24[esp]
	mov	eax, DWORD PTR [edi]
	add	esp, 16
	.cfi_def_cfa_offset 48
	jmp	.L24
.L36:
	sub	esp, 12
	.cfi_remember_state
	.cfi_def_cfa_offset 60
	lea	eax, .LC0@GOTOFF[ebx]
	push	eax
	.cfi_def_cfa_offset 64
	call	_ZSt19__throw_logic_errorPKc@PLT
.L38:
	.cfi_restore_state
	call	__stack_chk_fail_local
	.cfi_endproc
.LFE4634:
	.size	_ZNSt7__cxx1112basic_stringIcSt11char_traitsIcESaIcEE12_M_constructIPcEEvT_S7_St20forward_iterator_tag.constprop.189, .-_ZNSt7__cxx1112basic_stringIcSt11char_traitsIcESaIcEE12_M_constructIPcEEvT_S7_St20forward_iterator_tag.constprop.189
	.align 2
	.p2align 4,,15
	.type	_ZNSt7__cxx1112basic_stringIcSt11char_traitsIcESaIcEEC2EPKcRKS3_.isra.85, @function
_ZNSt7__cxx1112basic_stringIcSt11char_traitsIcESaIcEEC2EPKcRKS3_.isra.85:
.LFB4542:
	.cfi_startproc
	push	ebp
	.cfi_def_cfa_offset 8
	.cfi_offset 5, -8
	push	edi
	.cfi_def_cfa_offset 12
	.cfi_offset 7, -12
	push	esi
	.cfi_def_cfa_offset 16
	.cfi_offset 6, -16
	mov	esi, eax
	push	ebx
	.cfi_def_cfa_offset 20
	.cfi_offset 3, -20
	lea	edi, 8[esi]
	call	__x86.get_pc_thunk.bx
	add	ebx, OFFSET FLAT:_GLOBAL_OFFSET_TABLE_
	sub	esp, 44
	.cfi_def_cfa_offset 64
	mov	eax, DWORD PTR gs:20
	mov	DWORD PTR 28[esp], eax
	xor	eax, eax
	mov	DWORD PTR [esi], edi
	test	edx, edx
	je	.L40
	sub	esp, 12
	.cfi_def_cfa_offset 76
	mov	ebp, edx
	push	edx
	.cfi_def_cfa_offset 80
	call	strlen@PLT
	add	esp, 16
	.cfi_def_cfa_offset 64
	mov	edx, eax
	mov	DWORD PTR 24[esp], eax
	cmp	eax, 15
	ja	.L52
	cmp	eax, 1
	jne	.L44
	movzx	edx, BYTE PTR 0[ebp]
	mov	BYTE PTR 8[esi], dl
.L45:
	mov	DWORD PTR 4[esi], eax
	mov	BYTE PTR [edi+eax], 0
	mov	eax, DWORD PTR 28[esp]
	xor	eax, DWORD PTR gs:20
	jne	.L53
	add	esp, 44
	.cfi_remember_state
	.cfi_def_cfa_offset 20
	pop	ebx
	.cfi_restore 3
	.cfi_def_cfa_offset 16
	pop	esi
	.cfi_restore 6
	.cfi_def_cfa_offset 12
	pop	edi
	.cfi_restore 7
	.cfi_def_cfa_offset 8
	pop	ebp
	.cfi_restore 5
	.cfi_def_cfa_offset 4
	ret
	.p2align 4,,10
	.p2align 3
.L44:
	.cfi_restore_state
	test	eax, eax
	je	.L45
	jmp	.L43
	.p2align 4,,10
	.p2align 3
.L52:
	mov	DWORD PTR 12[esp], eax
	sub	esp, 4
	.cfi_def_cfa_offset 68
	push	0
	.cfi_def_cfa_offset 72
	lea	eax, 32[esp]
	push	eax
	.cfi_def_cfa_offset 76
	push	esi
	.cfi_def_cfa_offset 80
	call	_ZNSt7__cxx1112basic_stringIcSt11char_traitsIcESaIcEE9_M_createERjj@PLT
	mov	edi, eax
	mov	DWORD PTR [esi], eax
	mov	eax, DWORD PTR 40[esp]
	add	esp, 16
	.cfi_def_cfa_offset 64
	mov	edx, DWORD PTR 12[esp]
	mov	DWORD PTR 8[esi], eax
.L43:
	sub	esp, 4
	.cfi_def_cfa_offset 68
	push	edx
	.cfi_def_cfa_offset 72
	push	ebp
	.cfi_def_cfa_offset 76
	push	edi
	.cfi_def_cfa_offset 80
	call	memcpy@PLT
	mov	eax, DWORD PTR 40[esp]
	mov	edi, DWORD PTR [esi]
	add	esp, 16
	.cfi_def_cfa_offset 64
	jmp	.L45
.L53:
	call	__stack_chk_fail_local
.L40:
	sub	esp, 12
	.cfi_def_cfa_offset 76
	lea	eax, .LC0@GOTOFF[ebx]
	push	eax
	.cfi_def_cfa_offset 80
	call	_ZSt19__throw_logic_errorPKc@PLT
	.cfi_endproc
.LFE4542:
	.size	_ZNSt7__cxx1112basic_stringIcSt11char_traitsIcESaIcEEC2EPKcRKS3_.isra.85, .-_ZNSt7__cxx1112basic_stringIcSt11char_traitsIcESaIcEEC2EPKcRKS3_.isra.85
	.p2align 4,,15
	.type	_Z7getWordcRNSt7__cxx1112basic_stringIcSt11char_traitsIcESaIcEEES4_i.part.80.constprop.183, @function
_Z7getWordcRNSt7__cxx1112basic_stringIcSt11char_traitsIcESaIcEEES4_i.part.80.constprop.183:
.LFB4640:
	.cfi_startproc
	push	ebp
	.cfi_def_cfa_offset 8
	.cfi_offset 5, -8
	push	edi
	.cfi_def_cfa_offset 12
	.cfi_offset 7, -12
	mov	edi, eax
	push	esi
	.cfi_def_cfa_offset 16
	.cfi_offset 6, -16
	mov	esi, ecx
	push	ebx
	.cfi_def_cfa_offset 20
	.cfi_offset 3, -20
	call	__x86.get_pc_thunk.bx
	add	ebx, OFFSET FLAT:_GLOBAL_OFFSET_TABLE_
	sub	esp, 44
	.cfi_def_cfa_offset 64
	mov	eax, DWORD PTR [edx]
	mov	DWORD PTR 12[esp], edx
	movzx	edx, BYTE PTR [eax+ecx]
	mov	DWORD PTR 28[esp], ebx
	cmp	dl, 32
	jne	.L58
	.p2align 4,,10
	.p2align 3
.L55:
	add	esi, 1
	movzx	edx, BYTE PTR [eax+esi]
	cmp	dl, 32
	je	.L55
.L58:
	mov	eax, DWORD PTR 12[esp]
	mov	eax, DWORD PTR 4[eax]
	cmp	eax, esi
	jbe	.L54
	cmp	dl, 10
	je	.L59
	lea	eax, 8[edi]
	mov	DWORD PTR 16[esp], eax
	jmp	.L60
	.p2align 4,,10
	.p2align 3
.L62:
	mov	BYTE PTR [eax+ebp], dl
	mov	eax, DWORD PTR [edi]
	add	esi, 1
	mov	DWORD PTR 4[edi], ecx
	mov	BYTE PTR 1[eax+ebp], 0
	mov	eax, DWORD PTR 12[esp]
	mov	eax, DWORD PTR 4[eax]
	cmp	eax, esi
	jbe	.L54
	mov	eax, DWORD PTR 12[esp]
	mov	eax, DWORD PTR [eax]
	movzx	edx, BYTE PTR [eax+esi]
	cmp	dl, 10
	je	.L59
	cmp	dl, 32
	je	.L59
.L60:
	mov	ebp, DWORD PTR 4[edi]
	mov	eax, DWORD PTR [edi]
	lea	ecx, 1[ebp]
	cmp	eax, DWORD PTR 16[esp]
	je	.L65
	mov	ebx, DWORD PTR 8[edi]
.L61:
	cmp	ecx, ebx
	jbe	.L62
	mov	BYTE PTR 27[esp], dl
	sub	esp, 12
	.cfi_def_cfa_offset 76
	mov	DWORD PTR 32[esp], ecx
	push	1
	.cfi_def_cfa_offset 80
	push	0
	.cfi_def_cfa_offset 84
	push	0
	.cfi_def_cfa_offset 88
	push	ebp
	.cfi_def_cfa_offset 92
	push	edi
	.cfi_def_cfa_offset 96
	mov	ebx, DWORD PTR 60[esp]
	call	_ZNSt7__cxx1112basic_stringIcSt11char_traitsIcESaIcEE9_M_mutateEjjPKcj@PLT
	add	esp, 32
	.cfi_def_cfa_offset 64
	mov	eax, DWORD PTR [edi]
	movzx	edx, BYTE PTR 27[esp]
	mov	ecx, DWORD PTR 20[esp]
	jmp	.L62
	.p2align 4,,10
	.p2align 3
.L65:
	mov	ebx, 15
	jmp	.L61
	.p2align 4,,10
	.p2align 3
.L59:
	lea	eax, 1[esi]
.L54:
	add	esp, 44
	.cfi_def_cfa_offset 20
	pop	ebx
	.cfi_restore 3
	.cfi_def_cfa_offset 16
	pop	esi
	.cfi_restore 6
	.cfi_def_cfa_offset 12
	pop	edi
	.cfi_restore 7
	.cfi_def_cfa_offset 8
	pop	ebp
	.cfi_restore 5
	.cfi_def_cfa_offset 4
	ret
	.cfi_endproc
.LFE4640:
	.size	_Z7getWordcRNSt7__cxx1112basic_stringIcSt11char_traitsIcESaIcEEES4_i.part.80.constprop.183, .-_Z7getWordcRNSt7__cxx1112basic_stringIcSt11char_traitsIcESaIcEEES4_i.part.80.constprop.183
	.align 2
	.p2align 4,,15
	.type	_ZNSt8_Rb_treeINSt7__cxx1112basic_stringIcSt11char_traitsIcESaIcEEESt4pairIKS5_S5_ESt10_Select1stIS8_ESt4lessIS5_ESaIS8_EE4findERS7_.constprop.184, @function
_ZNSt8_Rb_treeINSt7__cxx1112basic_stringIcSt11char_traitsIcESaIcEEESt4pairIKS5_S5_ESt10_Select1stIS8_ESt4lessIS5_ESaIS8_EE4findERS7_.constprop.184:
.LFB4639:
	.cfi_startproc
	push	ebp
	.cfi_def_cfa_offset 8
	.cfi_offset 5, -8
	push	edi
	.cfi_def_cfa_offset 12
	.cfi_offset 7, -12
	push	esi
	.cfi_def_cfa_offset 16
	.cfi_offset 6, -16
	push	ebx
	.cfi_def_cfa_offset 20
	.cfi_offset 3, -20
	call	__x86.get_pc_thunk.bx
	add	ebx, OFFSET FLAT:_GLOBAL_OFFSET_TABLE_
	sub	esp, 28
	.cfi_def_cfa_offset 48
	mov	DWORD PTR 8[esp], eax
	mov	esi, DWORD PTR _Z11varPointersB5cxx11@GOTOFF[ebx+8]
	test	esi, esi
	je	.L103
	mov	eax, DWORD PTR [edx]
	mov	ebp, DWORD PTR 4[edx]
	mov	DWORD PTR 4[esp], eax
	lea	eax, _Z11varPointersB5cxx11@GOTOFF[ebx+4]
	mov	DWORD PTR 12[esp], eax
	mov	DWORD PTR [esp], eax
	jmp	.L87
	.p2align 4,,10
	.p2align 3
.L104:
	mov	DWORD PTR [esp], esi
	mov	esi, DWORD PTR 8[esi]
	test	esi, esi
	je	.L88
.L87:
	mov	edi, DWORD PTR 20[esi]
	mov	eax, ebp
	cmp	edi, ebp
	cmovbe	eax, edi
	test	eax, eax
	je	.L89
	sub	esp, 4
	.cfi_def_cfa_offset 52
	push	eax
	.cfi_def_cfa_offset 56
	push	DWORD PTR 12[esp]
	.cfi_def_cfa_offset 60
	push	DWORD PTR 16[esi]
	.cfi_def_cfa_offset 64
	call	memcmp@PLT
	add	esp, 16
	.cfi_def_cfa_offset 48
	test	eax, eax
	jne	.L90
.L89:
	mov	eax, edi
	sub	eax, ebp
.L90:
	test	eax, eax
	jns	.L104
	mov	esi, DWORD PTR 12[esi]
	test	esi, esi
	jne	.L87
.L88:
	mov	ecx, DWORD PTR [esp]
	mov	eax, DWORD PTR 12[esp]
	cmp	ecx, eax
	je	.L93
	mov	esi, DWORD PTR 20[ecx]
	cmp	ebp, esi
	mov	eax, esi
	cmovbe	eax, ebp
	test	eax, eax
	je	.L94
	sub	esp, 4
	.cfi_def_cfa_offset 52
	push	eax
	.cfi_def_cfa_offset 56
	push	DWORD PTR 16[ecx]
	.cfi_def_cfa_offset 60
	push	DWORD PTR 16[esp]
	.cfi_def_cfa_offset 64
	call	memcmp@PLT
	add	esp, 16
	.cfi_def_cfa_offset 48
	test	eax, eax
	jne	.L95
.L94:
	mov	eax, ebp
	sub	eax, esi
.L95:
	test	eax, eax
	js	.L93
	mov	eax, DWORD PTR 8[esp]
	mov	edx, DWORD PTR [esp]
	mov	DWORD PTR [eax], edx
	add	esp, 28
	.cfi_remember_state
	.cfi_def_cfa_offset 20
	pop	ebx
	.cfi_restore 3
	.cfi_def_cfa_offset 16
	pop	esi
	.cfi_restore 6
	.cfi_def_cfa_offset 12
	pop	edi
	.cfi_restore 7
	.cfi_def_cfa_offset 8
	pop	ebp
	.cfi_restore 5
	.cfi_def_cfa_offset 4
	ret
	.p2align 4,,10
	.p2align 3
.L103:
	.cfi_restore_state
	lea	eax, _Z11varPointersB5cxx11@GOTOFF[ebx+4]
	mov	DWORD PTR 12[esp], eax
.L93:
	mov	eax, DWORD PTR 8[esp]
	mov	edx, DWORD PTR 12[esp]
	mov	DWORD PTR [eax], edx
	add	esp, 28
	.cfi_def_cfa_offset 20
	pop	ebx
	.cfi_restore 3
	.cfi_def_cfa_offset 16
	pop	esi
	.cfi_restore 6
	.cfi_def_cfa_offset 12
	pop	edi
	.cfi_restore 7
	.cfi_def_cfa_offset 8
	pop	ebp
	.cfi_restore 5
	.cfi_def_cfa_offset 4
	ret
	.cfi_endproc
.LFE4639:
	.size	_ZNSt8_Rb_treeINSt7__cxx1112basic_stringIcSt11char_traitsIcESaIcEEESt4pairIKS5_S5_ESt10_Select1stIS8_ESt4lessIS5_ESaIS8_EE4findERS7_.constprop.184, .-_ZNSt8_Rb_treeINSt7__cxx1112basic_stringIcSt11char_traitsIcESaIcEEESt4pairIKS5_S5_ESt10_Select1stIS8_ESt4lessIS5_ESaIS8_EE4findERS7_.constprop.184
	.align 2
	.p2align 4,,15
	.type	_ZNSt8_Rb_treeINSt7__cxx1112basic_stringIcSt11char_traitsIcESaIcEEESt4pairIKS5_bESt10_Select1stIS8_ESt4lessIS5_ESaIS8_EE17_M_emplace_uniqueIJS6_IS5_bEEEES6_ISt17_Rb_tree_iteratorIS8_EbEDpOT_.constprop.181, @function
_ZNSt8_Rb_treeINSt7__cxx1112basic_stringIcSt11char_traitsIcESaIcEEESt4pairIKS5_bESt10_Select1stIS8_ESt4lessIS5_ESaIS8_EE17_M_emplace_uniqueIJS6_IS5_bEEEES6_ISt17_Rb_tree_iteratorIS8_EbEDpOT_.constprop.181:
.LFB4642:
	.cfi_startproc
	push	ebp
	.cfi_def_cfa_offset 8
	.cfi_offset 5, -8
	push	edi
	.cfi_def_cfa_offset 12
	.cfi_offset 7, -12
	push	esi
	.cfi_def_cfa_offset 16
	.cfi_offset 6, -16
	mov	esi, edx
	push	ebx
	.cfi_def_cfa_offset 20
	.cfi_offset 3, -20
	call	__x86.get_pc_thunk.bx
	add	ebx, OFFSET FLAT:_GLOBAL_OFFSET_TABLE_
	sub	esp, 56
	.cfi_def_cfa_offset 76
	mov	DWORD PTR 24[esp], eax
	push	44
	.cfi_def_cfa_offset 80
	call	_Znwj@PLT
	mov	ebp, DWORD PTR [esi]
	mov	edi, eax
	add	eax, 24
	mov	DWORD PTR 44[esp], eax
	add	esp, 16
	.cfi_def_cfa_offset 64
	mov	DWORD PTR 16[edi], eax
	lea	eax, 8[esi]
	cmp	ebp, eax
	je	.L142
	mov	edx, DWORD PTR 8[esi]
	mov	DWORD PTR 16[edi], ebp
	mov	DWORD PTR 24[edi], edx
.L107:
	mov	ecx, DWORD PTR 4[esi]
	mov	DWORD PTR [esi], eax
	mov	DWORD PTR 4[esi], 0
	movzx	eax, BYTE PTR 24[esi]
	mov	BYTE PTR 8[esi], 0
	mov	esi, DWORD PTR _Z9variablesB5cxx11@GOTOFF[ebx+8]
	mov	DWORD PTR 8[esp], ecx
	mov	DWORD PTR 20[edi], ecx
	mov	BYTE PTR 40[edi], al
	test	esi, esi
	je	.L143
	mov	DWORD PTR 24[esp], edi
	mov	edi, ebp
	jmp	.L109
	.p2align 4,,10
	.p2align 3
.L113:
	mov	ecx, DWORD PTR 12[esi]
	xor	eax, eax
	test	ecx, ecx
	je	.L110
.L144:
	mov	esi, ecx
.L109:
	mov	eax, DWORD PTR 8[esp]
	mov	edx, DWORD PTR 20[esi]
	mov	ebp, eax
	cmp	eax, edx
	mov	eax, DWORD PTR 16[esi]
	cmova	ebp, edx
	mov	DWORD PTR 20[esp], eax
	test	ebp, ebp
	je	.L111
	mov	DWORD PTR 16[esp], edx
	sub	esp, 4
	.cfi_def_cfa_offset 68
	push	ebp
	.cfi_def_cfa_offset 72
	push	eax
	.cfi_def_cfa_offset 76
	push	edi
	.cfi_def_cfa_offset 80
	call	memcmp@PLT
	add	esp, 16
	.cfi_def_cfa_offset 64
	mov	edx, DWORD PTR 16[esp]
	test	eax, eax
	jne	.L112
.L111:
	mov	eax, DWORD PTR 8[esp]
	sub	eax, edx
.L112:
	test	eax, eax
	jns	.L113
	mov	ecx, DWORD PTR 8[esi]
	mov	eax, 1
	test	ecx, ecx
	jne	.L144
.L110:
	mov	DWORD PTR 16[esp], edx
	mov	ecx, esi
	mov	edx, ebp
	mov	ebp, edi
	mov	edi, DWORD PTR 24[esp]
	test	al, al
	jne	.L108
.L115:
	test	edx, edx
	je	.L117
	mov	DWORD PTR 24[esp], ecx
	sub	esp, 4
	.cfi_def_cfa_offset 68
	push	edx
	.cfi_def_cfa_offset 72
	push	ebp
	.cfi_def_cfa_offset 76
	push	DWORD PTR 32[esp]
	.cfi_def_cfa_offset 80
	call	memcmp@PLT
	add	esp, 16
	.cfi_def_cfa_offset 64
	mov	ecx, DWORD PTR 24[esp]
	test	eax, eax
	je	.L117
	test	eax, eax
	js	.L145
.L120:
	cmp	DWORD PTR 28[esp], ebp
	je	.L125
	sub	esp, 12
	.cfi_def_cfa_offset 76
	push	ebp
	.cfi_def_cfa_offset 80
	call	_ZdlPv@PLT
	add	esp, 16
	.cfi_def_cfa_offset 64
.L125:
	sub	esp, 12
	.cfi_def_cfa_offset 76
	push	edi
	.cfi_def_cfa_offset 80
	call	_ZdlPv@PLT
	mov	eax, DWORD PTR 28[esp]
	add	esp, 16
	.cfi_def_cfa_offset 64
	mov	DWORD PTR [eax], esi
	mov	BYTE PTR 4[eax], 0
	mov	eax, DWORD PTR 12[esp]
	add	esp, 44
	.cfi_remember_state
	.cfi_def_cfa_offset 20
	pop	ebx
	.cfi_restore 3
	.cfi_def_cfa_offset 16
	pop	esi
	.cfi_restore 6
	.cfi_def_cfa_offset 12
	pop	edi
	.cfi_restore 7
	.cfi_def_cfa_offset 8
	pop	ebp
	.cfi_restore 5
	.cfi_def_cfa_offset 4
	ret
	.p2align 4,,10
	.p2align 3
.L117:
	.cfi_restore_state
	mov	eax, DWORD PTR 16[esp]
	sub	eax, DWORD PTR 8[esp]
	test	eax, eax
	jns	.L120
.L145:
	test	ecx, ecx
	je	.L146
	lea	esi, _Z9variablesB5cxx11@GOTOFF[ebx+4]
	mov	eax, 1
	cmp	ecx, esi
	jne	.L147
.L121:
	push	esi
	.cfi_def_cfa_offset 68
	push	ecx
	.cfi_def_cfa_offset 72
	push	edi
	.cfi_def_cfa_offset 76
	push	eax
	.cfi_def_cfa_offset 80
	call	_ZSt29_Rb_tree_insert_and_rebalancebPSt18_Rb_tree_node_baseS0_RS_@PLT
	mov	eax, DWORD PTR 28[esp]
	add	esp, 16
	.cfi_def_cfa_offset 64
	add	DWORD PTR _Z9variablesB5cxx11@GOTOFF[ebx+20], 1
	mov	DWORD PTR [eax], edi
	mov	BYTE PTR 4[eax], 1
	mov	eax, DWORD PTR 12[esp]
	add	esp, 44
	.cfi_remember_state
	.cfi_def_cfa_offset 20
	pop	ebx
	.cfi_restore 3
	.cfi_def_cfa_offset 16
	pop	esi
	.cfi_restore 6
	.cfi_def_cfa_offset 12
	pop	edi
	.cfi_restore 7
	.cfi_def_cfa_offset 8
	pop	ebp
	.cfi_restore 5
	.cfi_def_cfa_offset 4
	ret
	.p2align 4,,10
	.p2align 3
.L143:
	.cfi_restore_state
	lea	esi, _Z9variablesB5cxx11@GOTOFF[ebx+4]
.L108:
	cmp	DWORD PTR _Z9variablesB5cxx11@GOTOFF[ebx+12], esi
	je	.L128
	sub	esp, 12
	.cfi_def_cfa_offset 76
	push	esi
	.cfi_def_cfa_offset 80
	call	_ZSt18_Rb_tree_decrementPSt18_Rb_tree_node_base@PLT
	add	esp, 16
	.cfi_def_cfa_offset 64
	mov	edx, DWORD PTR 16[eax]
	mov	ecx, DWORD PTR 20[eax]
	mov	DWORD PTR 20[esp], edx
	mov	edx, DWORD PTR 8[esp]
	mov	DWORD PTR 16[esp], ecx
	cmp	ecx, edx
	cmovbe	edx, ecx
	mov	ecx, esi
	mov	esi, eax
	jmp	.L115
	.p2align 4,,10
	.p2align 3
.L142:
	mov	edx, DWORD PTR 0[ebp]
	mov	ecx, DWORD PTR 28[esp]
	mov	DWORD PTR 24[edi], edx
	mov	edx, DWORD PTR 4[ebp]
	mov	DWORD PTR 4[ecx], edx
	mov	edx, DWORD PTR 8[ebp]
	mov	DWORD PTR 8[ecx], edx
	mov	edx, DWORD PTR 12[ebp]
	mov	ebp, ecx
	mov	DWORD PTR 12[ecx], edx
	jmp	.L107
	.p2align 4,,10
	.p2align 3
.L128:
	mov	ecx, esi
	lea	esi, _Z9variablesB5cxx11@GOTOFF[ebx+4]
	mov	eax, 1
	cmp	ecx, esi
	je	.L121
.L147:
	mov	edx, DWORD PTR 20[ecx]
	mov	eax, DWORD PTR 8[esp]
	cmp	eax, edx
	cmova	eax, edx
	test	eax, eax
	je	.L122
	mov	DWORD PTR 20[esp], edx
	sub	esp, 4
	.cfi_def_cfa_offset 68
	push	eax
	.cfi_def_cfa_offset 72
	push	DWORD PTR 16[ecx]
	.cfi_def_cfa_offset 76
	mov	DWORD PTR 28[esp], ecx
	push	ebp
	.cfi_def_cfa_offset 80
	call	memcmp@PLT
	add	esp, 16
	.cfi_def_cfa_offset 64
	mov	ecx, DWORD PTR 16[esp]
	mov	edx, DWORD PTR 20[esp]
	test	eax, eax
	jne	.L123
.L122:
	mov	eax, DWORD PTR 8[esp]
	sub	eax, edx
.L123:
	shr	eax, 31
	jmp	.L121
.L146:
	xor	esi, esi
	jmp	.L120
	.cfi_endproc
.LFE4642:
	.size	_ZNSt8_Rb_treeINSt7__cxx1112basic_stringIcSt11char_traitsIcESaIcEEESt4pairIKS5_bESt10_Select1stIS8_ESt4lessIS5_ESaIS8_EE17_M_emplace_uniqueIJS6_IS5_bEEEES6_ISt17_Rb_tree_iteratorIS8_EbEDpOT_.constprop.181, .-_ZNSt8_Rb_treeINSt7__cxx1112basic_stringIcSt11char_traitsIcESaIcEEESt4pairIKS5_bESt10_Select1stIS8_ESt4lessIS5_ESaIS8_EE17_M_emplace_uniqueIJS6_IS5_bEEEES6_ISt17_Rb_tree_iteratorIS8_EbEDpOT_.constprop.181
	.p2align 4,,15
	.type	_ZN9__gnu_cxx12__to_xstringINSt7__cxx1112basic_stringIcSt11char_traitsIcESaIcEEEcEET_PFiPT0_jPKS8_PcEjSB_z.constprop.187, @function
_ZN9__gnu_cxx12__to_xstringINSt7__cxx1112basic_stringIcSt11char_traitsIcESaIcEEEcEET_PFiPT0_jPKS8_PcEjSB_z.constprop.187:
.LFB4636:
	.cfi_startproc
	push	ebp
	.cfi_def_cfa_offset 8
	.cfi_offset 5, -8
	mov	ebp, esp
	.cfi_def_cfa_register 5
	push	edi
	push	esi
	push	ebx
	.cfi_offset 7, -12
	.cfi_offset 6, -16
	.cfi_offset 3, -20
	call	__x86.get_pc_thunk.bx
	add	ebx, OFFSET FLAT:_GLOBAL_OFFSET_TABLE_
	sub	esp, 44
	mov	ecx, DWORD PTR 16[ebp]
	mov	esi, DWORD PTR 8[ebp]
	mov	eax, DWORD PTR gs:20
	mov	DWORD PTR -28[ebp], eax
	xor	eax, eax
	lea	eax, 27[ecx]
	and	eax, -16
	sub	esp, eax
	lea	eax, 24[ebp]
	lea	edx, 15[esp]
	sub	esp, 8
	and	edx, -16
	push	eax
	push	DWORD PTR 20[ebp]
	push	-1
	push	1
	push	ecx
	push	edx
	mov	DWORD PTR -44[ebp], edx
	call	__vsnprintf_chk@PLT
	add	esp, 32
	mov	edx, DWORD PTR -44[ebp]
	mov	edi, eax
	lea	eax, 8[esi]
	cmp	edi, 15
	mov	DWORD PTR [esi], eax
	mov	DWORD PTR -32[ebp], edi
	ja	.L158
	cmp	edi, 1
	jne	.L151
	movzx	edx, BYTE PTR [edx]
	mov	BYTE PTR 8[esi], dl
.L152:
	mov	DWORD PTR 4[esi], edi
	mov	BYTE PTR [eax+edi], 0
	mov	eax, esi
	mov	ecx, DWORD PTR -28[ebp]
	xor	ecx, DWORD PTR gs:20
	jne	.L159
	lea	esp, -12[ebp]
	pop	ebx
	.cfi_remember_state
	.cfi_restore 3
	pop	esi
	.cfi_restore 6
	pop	edi
	.cfi_restore 7
	pop	ebp
	.cfi_restore 5
	.cfi_def_cfa 4, 4
	ret	4
	.p2align 4,,10
	.p2align 3
.L151:
	.cfi_restore_state
	test	edi, edi
	je	.L152
	jmp	.L150
	.p2align 4,,10
	.p2align 3
.L158:
	sub	esp, 4
	lea	eax, -32[ebp]
	push	0
	push	eax
	push	esi
	call	_ZNSt7__cxx1112basic_stringIcSt11char_traitsIcESaIcEE9_M_createERjj@PLT
	mov	ecx, DWORD PTR -32[ebp]
	mov	edx, DWORD PTR -44[ebp]
	add	esp, 16
	mov	DWORD PTR [esi], eax
	mov	DWORD PTR 8[esi], ecx
.L150:
	sub	esp, 4
	push	edi
	push	edx
	push	eax
	call	memcpy@PLT
	mov	edi, DWORD PTR -32[ebp]
	mov	eax, DWORD PTR [esi]
	add	esp, 16
	jmp	.L152
.L159:
	call	__stack_chk_fail_local
	.cfi_endproc
.LFE4636:
	.size	_ZN9__gnu_cxx12__to_xstringINSt7__cxx1112basic_stringIcSt11char_traitsIcESaIcEEEcEET_PFiPT0_jPKS8_PcEjSB_z.constprop.187, .-_ZN9__gnu_cxx12__to_xstringINSt7__cxx1112basic_stringIcSt11char_traitsIcESaIcEEEcEET_PFiPT0_jPKS8_PcEjSB_z.constprop.187
	.section	.rodata.str1.1,"aMS",@progbits,1
.LC1:
	.string	"basic_string::append"
.LC2:
	.string	" "
	.section	.text.unlikely,"ax",@progbits
.LCOLDB3:
	.text
.LHOTB3:
	.p2align 4,,15
	.globl	_Z2sxB5cxx11v
	.type	_Z2sxB5cxx11v, @function
_Z2sxB5cxx11v:
.LFB3098:
	.cfi_startproc
	.cfi_personality 0x9b,DW.ref.__gxx_personality_v0
	.cfi_lsda 0x1b,.LLSDA3098
	call	__x86.get_pc_thunk.ax
	add	eax, OFFSET FLAT:_GLOBAL_OFFSET_TABLE_
	push	ebp
	.cfi_def_cfa_offset 8
	.cfi_offset 5, -8
	mov	ebp, esp
	.cfi_def_cfa_register 5
	push	edi
	push	esi
	.cfi_offset 7, -12
	.cfi_offset 6, -16
	xor	esi, esi
	push	ebx
	lea	edx, .LC2@GOTOFF[eax]
	sub	esp, 28
	.cfi_offset 3, -20
	mov	edi, DWORD PTR 8[ebp]
	mov	DWORD PTR -28[ebp], eax
	mov	eax, DWORD PTR inLayer@GOTOFF[eax]
	mov	DWORD PTR -32[ebp], edx
	lea	ecx, 8[edi]
	mov	DWORD PTR 4[edi], 0
	mov	DWORD PTR -36[ebp], ecx
	mov	DWORD PTR [edi], ecx
	mov	BYTE PTR 8[edi], 0
	test	eax, eax
	jg	.L161
	jmp	.L160
	.p2align 4,,10
	.p2align 3
.L170:
	cmp	DWORD PTR 4[edi], 2147483647
	je	.L173
.L161:
	sub	esp, 4
	mov	ebx, DWORD PTR -28[ebp]
	push	1
	push	DWORD PTR -32[ebp]
	push	edi
.LEHB0:
	.cfi_escape 0x2e,0x10
	call	_ZNSt7__cxx1112basic_stringIcSt11char_traitsIcESaIcEE9_M_appendEPKcj@PLT
	mov	eax, DWORD PTR -28[ebp]
	add	esp, 16
	add	esi, 1
	cmp	DWORD PTR inLayer@GOTOFF[eax], esi
	jg	.L170
.L160:
	lea	esp, -12[ebp]
	mov	eax, edi
	pop	ebx
	.cfi_remember_state
	.cfi_restore 3
	pop	esi
	.cfi_restore 6
	pop	edi
	.cfi_restore 7
	pop	ebp
	.cfi_restore 5
	.cfi_def_cfa 4, 4
	ret	4
.L173:
	.cfi_restore_state
	mov	ebx, eax
	sub	esp, 12
	lea	eax, .LC1@GOTOFF[eax]
	push	eax
	call	_ZSt20__throw_length_errorPKc@PLT
.LEHE0:
.L167:
	mov	esi, eax
	jmp	.L164
	.globl	__gxx_personality_v0
	.section	.gcc_except_table,"a",@progbits
.LLSDA3098:
	.byte	0xff
	.byte	0xff
	.byte	0x1
	.uleb128 .LLSDACSE3098-.LLSDACSB3098
.LLSDACSB3098:
	.uleb128 .LEHB0-.LFB3098
	.uleb128 .LEHE0-.LEHB0
	.uleb128 .L167-.LFB3098
	.uleb128 0
.LLSDACSE3098:
	.text
	.cfi_endproc
	.section	.text.unlikely
	.cfi_startproc
	.cfi_personality 0x9b,DW.ref.__gxx_personality_v0
	.cfi_lsda 0x1b,.LLSDAC3098
	.type	_Z2sxB5cxx11v.cold.192, @function
_Z2sxB5cxx11v.cold.192:
.LFSB3098:
.L164:
	.cfi_def_cfa 5, 8
	.cfi_offset 3, -20
	.cfi_offset 5, -8
	.cfi_offset 6, -16
	.cfi_offset 7, -12
	mov	edx, DWORD PTR [edi]
	cmp	edx, DWORD PTR -36[ebp]
	je	.L165
	sub	esp, 12
	mov	ebx, DWORD PTR -28[ebp]
	push	edx
	call	_ZdlPv@PLT
	add	esp, 16
.L165:
	sub	esp, 12
	mov	ebx, DWORD PTR -28[ebp]
	push	esi
.LEHB1:
	call	_Unwind_Resume@PLT
.LEHE1:
	.cfi_endproc
.LFE3098:
	.section	.gcc_except_table
.LLSDAC3098:
	.byte	0xff
	.byte	0xff
	.byte	0x1
	.uleb128 .LLSDACSEC3098-.LLSDACSBC3098
.LLSDACSBC3098:
	.uleb128 .LEHB1-.LCOLDB3
	.uleb128 .LEHE1-.LEHB1
	.uleb128 0
	.uleb128 0
.LLSDACSEC3098:
	.section	.text.unlikely
	.text
	.size	_Z2sxB5cxx11v, .-_Z2sxB5cxx11v
	.section	.text.unlikely
	.size	_Z2sxB5cxx11v.cold.192, .-_Z2sxB5cxx11v.cold.192
.LCOLDE3:
	.text
.LHOTE3:
	.section	.rodata.str1.1
.LC4:
	.string	"%d"
.LC5:
	.string	"*"
	.section	.text.unlikely
.LCOLDB6:
	.text
.LHOTB6:
	.p2align 4,,15
	.globl	_Z9autoValueNSt7__cxx1112basic_stringIcSt11char_traitsIcESaIcEEES4_i
	.type	_Z9autoValueNSt7__cxx1112basic_stringIcSt11char_traitsIcESaIcEEES4_i, @function
_Z9autoValueNSt7__cxx1112basic_stringIcSt11char_traitsIcESaIcEEES4_i:
.LFB3100:
	.cfi_startproc
	.cfi_personality 0x9b,DW.ref.__gxx_personality_v0
	.cfi_lsda 0x1b,.LLSDA3100
	call	__x86.get_pc_thunk.ax
	add	eax, OFFSET FLAT:_GLOBAL_OFFSET_TABLE_
	push	ebp
	.cfi_def_cfa_offset 8
	.cfi_offset 5, -8
	mov	ebp, esp
	.cfi_def_cfa_register 5
	push	edi
	push	esi
	push	ebx
	sub	esp, 156
	.cfi_offset 7, -12
	.cfi_offset 6, -16
	.cfi_offset 3, -20
	mov	DWORD PTR -140[ebp], eax
	mov	edi, DWORD PTR 16[ebp]
	mov	esi, DWORD PTR 8[ebp]
	mov	ebx, DWORD PTR 12[ebp]
	mov	edx, DWORD PTR gs:20
	mov	DWORD PTR -28[ebp], edx
	xor	edx, edx
	mov	edx, DWORD PTR 4[edi]
	test	edx, edx
	je	.L175
	sub	esp, 12
	lea	ecx, -52[ebp]
	mov	edx, eax
	push	DWORD PTR 20[ebp]
	lea	eax, .LC4@GOTOFF[eax]
	mov	DWORD PTR -160[ebp], ecx
	push	eax
	push	16
	push	DWORD PTR vsnprintf@GOT[edx]
	push	ecx
.LEHB2:
	call	_ZN9__gnu_cxx12__to_xstringINSt7__cxx1112basic_stringIcSt11char_traitsIcESaIcEEEcEET_PFiPT0_jPKS8_PcEjSB_z.constprop.187
.LEHE2:
	lea	edx, -116[ebp]
	mov	ecx, DWORD PTR 4[ebx]
	lea	eax, -124[ebp]
	mov	DWORD PTR -152[ebp], edx
	add	esp, 28
	mov	DWORD PTR -124[ebp], edx
	mov	edx, DWORD PTR [ebx]
	mov	DWORD PTR -144[ebp], eax
	add	ecx, edx
.LEHB3:
	call	_ZNSt7__cxx1112basic_stringIcSt11char_traitsIcESaIcEE12_M_constructIPcEEvT_S7_St20forward_iterator_tag.constprop.189
.LEHE3:
	cmp	DWORD PTR -120[ebp], 2147483647
	je	.L218
	mov	eax, DWORD PTR -140[ebp]
	sub	esp, 4
	push	1
	lea	ebx, .LC5@GOTOFF[eax]
	push	ebx
	push	DWORD PTR -144[ebp]
	mov	DWORD PTR -148[ebp], ebx
	mov	ebx, eax
.LEHB4:
	.cfi_escape 0x2e,0x10
	call	_ZNSt7__cxx1112basic_stringIcSt11char_traitsIcESaIcEE9_M_appendEPKcj@PLT
.LEHE4:
	add	esp, 12
	push	DWORD PTR 4[edi]
	mov	ebx, DWORD PTR -140[ebp]
	push	DWORD PTR [edi]
	push	DWORD PTR -144[ebp]
.LEHB5:
	call	_ZNSt7__cxx1112basic_stringIcSt11char_traitsIcESaIcEE9_M_appendEPKcj@PLT
.LEHE5:
	lea	edi, -92[ebp]
	lea	edx, 8[eax]
	add	esp, 16
	mov	DWORD PTR -100[ebp], edi
	mov	ecx, DWORD PTR [eax]
	mov	DWORD PTR -156[ebp], edi
	cmp	ecx, edx
	je	.L219
	mov	DWORD PTR -100[ebp], ecx
	mov	ecx, DWORD PTR 8[eax]
	mov	DWORD PTR -92[ebp], ecx
.L182:
	mov	ecx, DWORD PTR 4[eax]
	mov	BYTE PTR 8[eax], 0
	mov	DWORD PTR -96[ebp], ecx
	mov	DWORD PTR [eax], edx
	mov	DWORD PTR 4[eax], 0
	cmp	DWORD PTR -96[ebp], 2147483647
	je	.L220
	sub	esp, 4
	lea	eax, -100[ebp]
	mov	ebx, DWORD PTR -140[ebp]
	push	1
	push	DWORD PTR -148[ebp]
	push	eax
.LEHB6:
	call	_ZNSt7__cxx1112basic_stringIcSt11char_traitsIcESaIcEE9_M_appendEPKcj@PLT
.LEHE6:
	lea	edi, -68[ebp]
	lea	edx, 8[eax]
	add	esp, 16
	mov	DWORD PTR -76[ebp], edi
	mov	ecx, DWORD PTR [eax]
	cmp	ecx, edx
	je	.L221
	mov	DWORD PTR -76[ebp], ecx
	mov	ecx, DWORD PTR 8[eax]
	mov	DWORD PTR -68[ebp], ecx
.L185:
	mov	ecx, DWORD PTR 4[eax]
	mov	BYTE PTR 8[eax], 0
	mov	ebx, 15
	mov	DWORD PTR -72[ebp], ecx
	mov	DWORD PTR [eax], edx
	mov	DWORD PTR 4[eax], 0
	mov	eax, DWORD PTR -72[ebp]
	mov	edx, DWORD PTR -48[ebp]
	mov	DWORD PTR -164[ebp], eax
	lea	ecx, [eax+edx]
	mov	eax, DWORD PTR -76[ebp]
	cmp	eax, edi
	mov	DWORD PTR -168[ebp], eax
	cmovne	ebx, DWORD PTR -68[ebp]
	mov	eax, DWORD PTR -52[ebp]
	mov	DWORD PTR -144[ebp], eax
	cmp	ecx, ebx
	jbe	.L222
	lea	ebx, -44[ebp]
	mov	eax, 15
	cmp	DWORD PTR -144[ebp], ebx
	cmovne	eax, DWORD PTR -44[ebp]
	mov	DWORD PTR -148[ebp], ebx
	cmp	ecx, eax
	jbe	.L223
.L187:
	sub	esp, 4
	lea	eax, -76[ebp]
	mov	ebx, DWORD PTR -140[ebp]
	push	edx
	push	DWORD PTR -144[ebp]
	push	eax
.LEHB7:
	call	_ZNSt7__cxx1112basic_stringIcSt11char_traitsIcESaIcEE9_M_appendEPKcj@PLT
	add	esp, 16
.L189:
	lea	ebx, 8[esi]
	lea	edx, 8[eax]
	mov	DWORD PTR [esi], ebx
	mov	ecx, DWORD PTR [eax]
	cmp	ecx, edx
	je	.L224
	mov	DWORD PTR [esi], ecx
	mov	ecx, DWORD PTR 8[eax]
	mov	DWORD PTR 8[esi], ecx
.L191:
	mov	ecx, DWORD PTR 4[eax]
	mov	DWORD PTR 4[esi], ecx
	mov	DWORD PTR [eax], edx
	mov	DWORD PTR 4[eax], 0
	mov	BYTE PTR 8[eax], 0
	mov	eax, DWORD PTR -76[ebp]
	cmp	eax, edi
	je	.L192
	sub	esp, 12
	mov	ebx, DWORD PTR -140[ebp]
	push	eax
	call	_ZdlPv@PLT
	add	esp, 16
.L192:
	mov	eax, DWORD PTR -100[ebp]
	cmp	eax, DWORD PTR -156[ebp]
	je	.L193
	sub	esp, 12
	mov	ebx, DWORD PTR -140[ebp]
	push	eax
	call	_ZdlPv@PLT
	add	esp, 16
.L193:
	mov	eax, DWORD PTR -124[ebp]
	cmp	eax, DWORD PTR -152[ebp]
	je	.L194
	sub	esp, 12
	mov	ebx, DWORD PTR -140[ebp]
	push	eax
	call	_ZdlPv@PLT
	add	esp, 16
.L194:
	mov	eax, DWORD PTR -52[ebp]
	cmp	eax, DWORD PTR -148[ebp]
	je	.L174
	sub	esp, 12
	mov	ebx, DWORD PTR -140[ebp]
	push	eax
	call	_ZdlPv@PLT
	add	esp, 16
.L174:
	mov	eax, esi
	mov	esi, DWORD PTR -28[ebp]
	xor	esi, DWORD PTR gs:20
	jne	.L225
	lea	esp, -12[ebp]
	pop	ebx
	.cfi_remember_state
	.cfi_restore 3
	pop	esi
	.cfi_restore 6
	pop	edi
	.cfi_restore 7
	pop	ebp
	.cfi_restore 5
	.cfi_def_cfa 4, 4
	ret	4
	.p2align 4,,10
	.p2align 3
.L175:
	.cfi_restore_state
	mov	edx, DWORD PTR [ebx]
	lea	ecx, 8[esi]
	lea	eax, 8[ebx]
	mov	DWORD PTR [esi], ecx
	cmp	edx, eax
	je	.L226
	mov	DWORD PTR [esi], edx
	mov	edx, DWORD PTR 8[ebx]
	mov	DWORD PTR 8[esi], edx
.L198:
	mov	edx, DWORD PTR 4[ebx]
	mov	DWORD PTR [ebx], eax
	mov	DWORD PTR 4[ebx], 0
	mov	DWORD PTR 4[esi], edx
	mov	BYTE PTR 8[ebx], 0
	jmp	.L174
	.p2align 4,,10
	.p2align 3
.L222:
	lea	eax, -44[ebp]
	mov	DWORD PTR -148[ebp], eax
	jmp	.L187
	.p2align 4,,10
	.p2align 3
.L223:
	sub	esp, 12
	push	DWORD PTR -164[ebp]
	mov	ebx, DWORD PTR -140[ebp]
	push	DWORD PTR -168[ebp]
	push	0
	push	0
	push	DWORD PTR -160[ebp]
	.cfi_escape 0x2e,0x20
	call	_ZNSt7__cxx1112basic_stringIcSt11char_traitsIcESaIcEE10_M_replaceEjjPKcj@PLT
.LEHE7:
	add	esp, 32
	jmp	.L189
	.p2align 4,,10
	.p2align 3
.L226:
	mov	edx, DWORD PTR 8[ebx]
	mov	DWORD PTR 8[esi], edx
	mov	edx, DWORD PTR 4[eax]
	mov	DWORD PTR 12[esi], edx
	mov	edx, DWORD PTR 8[eax]
	mov	DWORD PTR 16[esi], edx
	mov	edx, DWORD PTR 12[eax]
	mov	DWORD PTR 20[esi], edx
	jmp	.L198
	.p2align 4,,10
	.p2align 3
.L224:
	mov	ecx, DWORD PTR 8[eax]
	mov	DWORD PTR 8[esi], ecx
	mov	ecx, DWORD PTR 4[edx]
	mov	DWORD PTR 12[esi], ecx
	mov	ecx, DWORD PTR 8[edx]
	mov	DWORD PTR 16[esi], ecx
	mov	ecx, DWORD PTR 12[edx]
	mov	DWORD PTR 20[esi], ecx
	jmp	.L191
	.p2align 4,,10
	.p2align 3
.L221:
	mov	ecx, DWORD PTR 8[eax]
	mov	DWORD PTR -68[ebp], ecx
	mov	ecx, DWORD PTR 12[eax]
	mov	DWORD PTR -64[ebp], ecx
	mov	ecx, DWORD PTR 16[eax]
	mov	DWORD PTR -60[ebp], ecx
	mov	ecx, DWORD PTR 20[eax]
	mov	DWORD PTR -56[ebp], ecx
	jmp	.L185
	.p2align 4,,10
	.p2align 3
.L219:
	mov	ecx, DWORD PTR 8[eax]
	mov	DWORD PTR -92[ebp], ecx
	mov	ecx, DWORD PTR 12[eax]
	mov	DWORD PTR -88[ebp], ecx
	mov	ecx, DWORD PTR 16[eax]
	mov	DWORD PTR -84[ebp], ecx
	mov	ecx, DWORD PTR 20[eax]
	mov	DWORD PTR -80[ebp], ecx
	jmp	.L182
.L218:
	mov	ebx, DWORD PTR -140[ebp]
	sub	esp, 12
	lea	eax, .LC1@GOTOFF[ebx]
	push	eax
.LEHB8:
	.cfi_escape 0x2e,0x10
	call	_ZSt20__throw_length_errorPKc@PLT
.LEHE8:
.L225:
	call	__stack_chk_fail_local
.L220:
	mov	ebx, DWORD PTR -140[ebp]
	sub	esp, 12
	lea	eax, .LC1@GOTOFF[ebx]
	push	eax
.LEHB9:
	call	_ZSt20__throw_length_errorPKc@PLT
.LEHE9:
.L213:
	mov	esi, eax
	jmp	.L178
.L210:
	mov	esi, eax
	lea	eax, -44[ebp]
	mov	DWORD PTR -148[ebp], eax
	jmp	.L203
.L212:
	mov	esi, eax
	jmp	.L199
.L211:
	mov	esi, eax
	lea	eax, -44[ebp]
	mov	DWORD PTR -148[ebp], eax
	jmp	.L201
.L209:
	mov	esi, eax
	lea	eax, -44[ebp]
	mov	DWORD PTR -148[ebp], eax
	jmp	.L180
	.section	.gcc_except_table
.LLSDA3100:
	.byte	0xff
	.byte	0xff
	.byte	0x1
	.uleb128 .LLSDACSE3100-.LLSDACSB3100
.LLSDACSB3100:
	.uleb128 .LEHB2-.LFB3100
	.uleb128 .LEHE2-.LEHB2
	.uleb128 0
	.uleb128 0
	.uleb128 .LEHB3-.LFB3100
	.uleb128 .LEHE3-.LEHB3
	.uleb128 .L209-.LFB3100
	.uleb128 0
	.uleb128 .LEHB4-.LFB3100
	.uleb128 .LEHE4-.LEHB4
	.uleb128 .L213-.LFB3100
	.uleb128 0
	.uleb128 .LEHB5-.LFB3100
	.uleb128 .LEHE5-.LEHB5
	.uleb128 .L210-.LFB3100
	.uleb128 0
	.uleb128 .LEHB6-.LFB3100
	.uleb128 .LEHE6-.LEHB6
	.uleb128 .L211-.LFB3100
	.uleb128 0
	.uleb128 .LEHB7-.LFB3100
	.uleb128 .LEHE7-.LEHB7
	.uleb128 .L212-.LFB3100
	.uleb128 0
	.uleb128 .LEHB8-.LFB3100
	.uleb128 .LEHE8-.LEHB8
	.uleb128 .L213-.LFB3100
	.uleb128 0
	.uleb128 .LEHB9-.LFB3100
	.uleb128 .LEHE9-.LEHB9
	.uleb128 .L211-.LFB3100
	.uleb128 0
.LLSDACSE3100:
	.text
	.cfi_endproc
	.section	.text.unlikely
	.cfi_startproc
	.cfi_personality 0x9b,DW.ref.__gxx_personality_v0
	.cfi_lsda 0x1b,.LLSDAC3100
	.type	_Z9autoValueNSt7__cxx1112basic_stringIcSt11char_traitsIcESaIcEEES4_i.cold.193, @function
_Z9autoValueNSt7__cxx1112basic_stringIcSt11char_traitsIcESaIcEEES4_i.cold.193:
.LFSB3100:
.L178:
	.cfi_def_cfa 5, 8
	.cfi_offset 3, -20
	.cfi_offset 5, -8
	.cfi_offset 6, -16
	.cfi_offset 7, -12
	mov	eax, DWORD PTR -124[ebp]
	cmp	eax, DWORD PTR -152[ebp]
	je	.L179
	sub	esp, 12
	mov	ebx, DWORD PTR -140[ebp]
	push	eax
	call	_ZdlPv@PLT
	add	esp, 16
.L179:
	lea	eax, -44[ebp]
	mov	DWORD PTR -148[ebp], eax
.L180:
	mov	eax, DWORD PTR -52[ebp]
	cmp	eax, DWORD PTR -148[ebp]
	je	.L205
	sub	esp, 12
	mov	ebx, DWORD PTR -140[ebp]
	push	eax
	call	_ZdlPv@PLT
	add	esp, 16
.L205:
	sub	esp, 12
	mov	ebx, DWORD PTR -140[ebp]
	push	esi
.LEHB10:
	call	_Unwind_Resume@PLT
.LEHE10:
.L199:
	mov	eax, DWORD PTR -76[ebp]
	cmp	eax, edi
	je	.L201
	sub	esp, 12
	mov	ebx, DWORD PTR -140[ebp]
	push	eax
	call	_ZdlPv@PLT
	add	esp, 16
.L201:
	mov	eax, DWORD PTR -100[ebp]
	cmp	eax, DWORD PTR -156[ebp]
	je	.L203
	sub	esp, 12
	mov	ebx, DWORD PTR -140[ebp]
	push	eax
	call	_ZdlPv@PLT
	add	esp, 16
.L203:
	mov	eax, DWORD PTR -124[ebp]
	cmp	eax, DWORD PTR -152[ebp]
	je	.L180
	sub	esp, 12
	mov	ebx, DWORD PTR -140[ebp]
	push	eax
	call	_ZdlPv@PLT
	add	esp, 16
	jmp	.L180
	.cfi_endproc
.LFE3100:
	.section	.gcc_except_table
.LLSDAC3100:
	.byte	0xff
	.byte	0xff
	.byte	0x1
	.uleb128 .LLSDACSEC3100-.LLSDACSBC3100
.LLSDACSBC3100:
	.uleb128 .LEHB10-.LCOLDB6
	.uleb128 .LEHE10-.LEHB10
	.uleb128 0
	.uleb128 0
.LLSDACSEC3100:
	.section	.text.unlikely
	.text
	.size	_Z9autoValueNSt7__cxx1112basic_stringIcSt11char_traitsIcESaIcEEES4_i, .-_Z9autoValueNSt7__cxx1112basic_stringIcSt11char_traitsIcESaIcEEES4_i
	.section	.text.unlikely
	.size	_Z9autoValueNSt7__cxx1112basic_stringIcSt11char_traitsIcESaIcEEES4_i.cold.193, .-_Z9autoValueNSt7__cxx1112basic_stringIcSt11char_traitsIcESaIcEEES4_i.cold.193
.LCOLDE6:
	.text
.LHOTE6:
	.section	.rodata.str1.1
.LC7:
	.string	"edx "
.LC8:
	.string	"ecx "
.LC9:
	.string	"ebx "
.LC10:
	.string	"eax "
	.text
	.p2align 4,,15
	.globl	_Z10getFreeRegv
	.type	_Z10getFreeRegv, @function
_Z10getFreeRegv:
.LFB3101:
	.cfi_startproc
	push	ebx
	.cfi_def_cfa_offset 8
	.cfi_offset 3, -8
	call	__x86.get_pc_thunk.bx
	add	ebx, OFFSET FLAT:_GLOBAL_OFFSET_TABLE_
	sub	esp, 8
	.cfi_def_cfa_offset 16
	mov	eax, DWORD PTR usedregister@GOTOFF[ebx]
	cmp	eax, 3
	je	.L233
	cmp	eax, 2
	je	.L234
	cmp	eax, 1
	je	.L235
	test	eax, eax
	je	.L236
	add	esp, 8
	.cfi_remember_state
	.cfi_def_cfa_offset 8
	pop	ebx
	.cfi_restore 3
	.cfi_def_cfa_offset 4
	ret
	.p2align 4,,10
	.p2align 3
.L233:
	.cfi_restore_state
	sub	esp, 12
	.cfi_def_cfa_offset 28
	lea	eax, .LC7@GOTOFF[ebx]
	push	4
	.cfi_def_cfa_offset 32
	push	eax
	.cfi_def_cfa_offset 36
	lea	eax, _Z9regbufferB5cxx11@GOTOFF[ebx]
	push	DWORD PTR _Z9regbufferB5cxx11@GOTOFF[ebx+4]
	.cfi_def_cfa_offset 40
	push	0
	.cfi_def_cfa_offset 44
	push	eax
	.cfi_def_cfa_offset 48
	call	_ZNSt7__cxx1112basic_stringIcSt11char_traitsIcESaIcEE10_M_replaceEjjPKcj@PLT
	add	esp, 32
	.cfi_def_cfa_offset 16
	mov	DWORD PTR usedregister@GOTOFF[ebx], 0
	add	esp, 8
	.cfi_remember_state
	.cfi_def_cfa_offset 8
	pop	ebx
	.cfi_restore 3
	.cfi_def_cfa_offset 4
	ret
	.p2align 4,,10
	.p2align 3
.L236:
	.cfi_restore_state
	sub	esp, 12
	.cfi_def_cfa_offset 28
	lea	eax, .LC10@GOTOFF[ebx]
	push	4
	.cfi_def_cfa_offset 32
	push	eax
	.cfi_def_cfa_offset 36
	lea	eax, _Z9regbufferB5cxx11@GOTOFF[ebx]
	push	DWORD PTR _Z9regbufferB5cxx11@GOTOFF[ebx+4]
	.cfi_def_cfa_offset 40
	push	0
	.cfi_def_cfa_offset 44
	push	eax
	.cfi_def_cfa_offset 48
	call	_ZNSt7__cxx1112basic_stringIcSt11char_traitsIcESaIcEE10_M_replaceEjjPKcj@PLT
	add	esp, 32
	.cfi_def_cfa_offset 16
	mov	DWORD PTR usedregister@GOTOFF[ebx], 1
	add	esp, 8
	.cfi_remember_state
	.cfi_def_cfa_offset 8
	pop	ebx
	.cfi_restore 3
	.cfi_def_cfa_offset 4
	ret
	.p2align 4,,10
	.p2align 3
.L234:
	.cfi_restore_state
	sub	esp, 12
	.cfi_def_cfa_offset 28
	lea	eax, .LC8@GOTOFF[ebx]
	push	4
	.cfi_def_cfa_offset 32
	push	eax
	.cfi_def_cfa_offset 36
	lea	eax, _Z9regbufferB5cxx11@GOTOFF[ebx]
	push	DWORD PTR _Z9regbufferB5cxx11@GOTOFF[ebx+4]
	.cfi_def_cfa_offset 40
	push	0
	.cfi_def_cfa_offset 44
	push	eax
	.cfi_def_cfa_offset 48
	call	_ZNSt7__cxx1112basic_stringIcSt11char_traitsIcESaIcEE10_M_replaceEjjPKcj@PLT
	add	esp, 32
	.cfi_def_cfa_offset 16
	mov	DWORD PTR usedregister@GOTOFF[ebx], 3
	add	esp, 8
	.cfi_remember_state
	.cfi_def_cfa_offset 8
	pop	ebx
	.cfi_restore 3
	.cfi_def_cfa_offset 4
	ret
	.p2align 4,,10
	.p2align 3
.L235:
	.cfi_restore_state
	sub	esp, 12
	.cfi_def_cfa_offset 28
	lea	eax, .LC9@GOTOFF[ebx]
	push	4
	.cfi_def_cfa_offset 32
	push	eax
	.cfi_def_cfa_offset 36
	lea	eax, _Z9regbufferB5cxx11@GOTOFF[ebx]
	push	DWORD PTR _Z9regbufferB5cxx11@GOTOFF[ebx+4]
	.cfi_def_cfa_offset 40
	push	0
	.cfi_def_cfa_offset 44
	push	eax
	.cfi_def_cfa_offset 48
	call	_ZNSt7__cxx1112basic_stringIcSt11char_traitsIcESaIcEE10_M_replaceEjjPKcj@PLT
	add	esp, 32
	.cfi_def_cfa_offset 16
	mov	DWORD PTR usedregister@GOTOFF[ebx], 2
	add	esp, 8
	.cfi_def_cfa_offset 8
	pop	ebx
	.cfi_restore 3
	.cfi_def_cfa_offset 4
	ret
	.cfi_endproc
.LFE3101:
	.size	_Z10getFreeRegv, .-_Z10getFreeRegv
	.section	.text._ZNSt4pairINSt7__cxx1112basic_stringIcSt11char_traitsIcESaIcEEES5_ED2Ev,"axG",@progbits,_ZNSt4pairINSt7__cxx1112basic_stringIcSt11char_traitsIcESaIcEEES5_ED5Ev,comdat
	.align 2
	.p2align 4,,15
	.weak	_ZNSt4pairINSt7__cxx1112basic_stringIcSt11char_traitsIcESaIcEEES5_ED2Ev
	.type	_ZNSt4pairINSt7__cxx1112basic_stringIcSt11char_traitsIcESaIcEEES5_ED2Ev, @function
_ZNSt4pairINSt7__cxx1112basic_stringIcSt11char_traitsIcESaIcEEES5_ED2Ev:
.LFB3109:
	.cfi_startproc
	push	esi
	.cfi_def_cfa_offset 8
	.cfi_offset 6, -8
	push	ebx
	.cfi_def_cfa_offset 12
	.cfi_offset 3, -12
	call	__x86.get_pc_thunk.bx
	add	ebx, OFFSET FLAT:_GLOBAL_OFFSET_TABLE_
	sub	esp, 4
	.cfi_def_cfa_offset 16
	mov	esi, DWORD PTR 16[esp]
	mov	eax, DWORD PTR 24[esi]
	lea	edx, 32[esi]
	cmp	eax, edx
	je	.L238
	sub	esp, 12
	.cfi_def_cfa_offset 28
	push	eax
	.cfi_def_cfa_offset 32
	call	_ZdlPv@PLT
	add	esp, 16
	.cfi_def_cfa_offset 16
.L238:
	mov	eax, DWORD PTR [esi]
	add	esi, 8
	cmp	eax, esi
	je	.L237
	sub	esp, 12
	.cfi_def_cfa_offset 28
	push	eax
	.cfi_def_cfa_offset 32
	call	_ZdlPv@PLT
	add	esp, 16
	.cfi_def_cfa_offset 16
.L237:
	add	esp, 4
	.cfi_def_cfa_offset 12
	pop	ebx
	.cfi_restore 3
	.cfi_def_cfa_offset 8
	pop	esi
	.cfi_restore 6
	.cfi_def_cfa_offset 4
	ret
	.cfi_endproc
.LFE3109:
	.size	_ZNSt4pairINSt7__cxx1112basic_stringIcSt11char_traitsIcESaIcEEES5_ED2Ev, .-_ZNSt4pairINSt7__cxx1112basic_stringIcSt11char_traitsIcESaIcEEES5_ED2Ev
	.weak	_ZNSt4pairINSt7__cxx1112basic_stringIcSt11char_traitsIcESaIcEEES5_ED1Ev
	.set	_ZNSt4pairINSt7__cxx1112basic_stringIcSt11char_traitsIcESaIcEEES5_ED1Ev,_ZNSt4pairINSt7__cxx1112basic_stringIcSt11char_traitsIcESaIcEEES5_ED2Ev
	.section	.rodata.str1.1
.LC11:
	.string	"mov esp, ebp\n"
.LC12:
	.string	"pop ebp\n"
.LC13:
	.string	"ret\n\n"
	.section	.text.unlikely
.LCOLDB14:
	.text
.LHOTB14:
	.p2align 4,,15
	.globl	_Z8doReturnv
	.type	_Z8doReturnv, @function
_Z8doReturnv:
.LFB3141:
	.cfi_startproc
	.cfi_personality 0x9b,DW.ref.__gxx_personality_v0
	.cfi_lsda 0x1b,.LLSDA3141
	push	ebp
	.cfi_def_cfa_offset 8
	.cfi_offset 5, -8
	mov	ebp, esp
	.cfi_def_cfa_register 5
	push	edi
	push	esi
	.cfi_offset 7, -12
	.cfi_offset 6, -16
	lea	edi, -100[ebp]
	call	__x86.get_pc_thunk.si
	add	esi, OFFSET FLAT:_GLOBAL_OFFSET_TABLE_
	push	ebx
	.cfi_offset 3, -20
	lea	ebx, -148[ebp]
	sub	esp, 184
	mov	eax, DWORD PTR gs:20
	mov	DWORD PTR -28[ebp], eax
	xor	eax, eax
	push	edi
.LEHB11:
	call	_Z2sxB5cxx11v
.LEHE11:
	push	ebx
.LEHB12:
	.cfi_escape 0x2e,0x10
	call	_Z2sxB5cxx11v
.LEHE12:
	mov	eax, 2147483647
	sub	eax, DWORD PTR -144[ebp]
	add	esp, 12
	cmp	eax, 12
	jbe	.L297
	sub	esp, 4
	lea	eax, .LC11@GOTOFF[esi]
	push	13
	push	eax
	push	ebx
	mov	ebx, esi
.LEHB13:
	call	_ZNSt7__cxx1112basic_stringIcSt11char_traitsIcESaIcEE9_M_appendEPKcj@PLT
.LEHE13:
	lea	ebx, -116[ebp]
	lea	edx, 8[eax]
	add	esp, 16
	mov	DWORD PTR -124[ebp], ebx
	mov	ecx, DWORD PTR [eax]
	mov	DWORD PTR -156[ebp], ebx
	cmp	ecx, edx
	je	.L298
	mov	DWORD PTR -124[ebp], ecx
	mov	ecx, DWORD PTR 8[eax]
	mov	DWORD PTR -116[ebp], ecx
.L244:
	mov	ecx, DWORD PTR 4[eax]
	mov	BYTE PTR 8[eax], 0
	mov	ebx, 15
	mov	DWORD PTR -120[ebp], ecx
	mov	DWORD PTR [eax], edx
	mov	DWORD PTR 4[eax], 0
	mov	eax, DWORD PTR -120[ebp]
	mov	edx, DWORD PTR -96[ebp]
	mov	DWORD PTR -160[ebp], eax
	lea	ecx, [eax+edx]
	mov	eax, DWORD PTR -124[ebp]
	cmp	eax, DWORD PTR -156[ebp]
	cmovne	ebx, DWORD PTR -116[ebp]
	mov	DWORD PTR -164[ebp], eax
	mov	eax, ebx
	mov	ebx, DWORD PTR -100[ebp]
	cmp	ecx, eax
	lea	eax, -92[ebp]
	mov	DWORD PTR -168[ebp], eax
	jbe	.L246
	cmp	ebx, eax
	mov	eax, 15
	cmovne	eax, DWORD PTR -92[ebp]
	cmp	ecx, eax
	jbe	.L299
.L246:
	sub	esp, 4
	lea	eax, -124[ebp]
	push	edx
	push	ebx
	mov	ebx, esi
	push	eax
.LEHB14:
	call	_ZNSt7__cxx1112basic_stringIcSt11char_traitsIcESaIcEE9_M_appendEPKcj@PLT
.LEHE14:
	add	esp, 16
.L248:
	lea	edi, -68[ebp]
	lea	edx, 8[eax]
	mov	DWORD PTR -76[ebp], edi
	mov	ecx, DWORD PTR [eax]
	mov	DWORD PTR -160[ebp], edi
	cmp	ecx, edx
	je	.L300
	mov	DWORD PTR -76[ebp], ecx
	mov	ecx, DWORD PTR 8[eax]
	mov	DWORD PTR -68[ebp], ecx
.L250:
	mov	ecx, DWORD PTR 4[eax]
	mov	DWORD PTR -72[ebp], ecx
	mov	DWORD PTR [eax], edx
	mov	DWORD PTR 4[eax], 0
	mov	BYTE PTR 8[eax], 0
	mov	eax, 2147483647
	sub	eax, DWORD PTR -72[ebp]
	cmp	eax, 7
	jbe	.L301
	sub	esp, 4
	lea	eax, .LC12@GOTOFF[esi]
	mov	ebx, esi
	push	8
	push	eax
	lea	eax, -76[ebp]
	push	eax
	mov	DWORD PTR -164[ebp], eax
.LEHB15:
	call	_ZNSt7__cxx1112basic_stringIcSt11char_traitsIcESaIcEE9_M_appendEPKcj@PLT
.LEHE15:
	lea	edi, -44[ebp]
	lea	edx, 8[eax]
	add	esp, 16
	mov	DWORD PTR -52[ebp], edi
	mov	ecx, DWORD PTR [eax]
	cmp	ecx, edx
	je	.L302
	mov	DWORD PTR -52[ebp], ecx
	mov	ecx, DWORD PTR 8[eax]
	mov	DWORD PTR -44[ebp], ecx
.L253:
	mov	ecx, DWORD PTR 4[eax]
	sub	esp, 4
	mov	ebx, esi
	mov	DWORD PTR -48[ebp], ecx
	mov	DWORD PTR [eax], edx
	mov	DWORD PTR 4[eax], 0
	mov	BYTE PTR 8[eax], 0
	lea	eax, _Z9codbufferB5cxx11@GOTOFF[esi]
	push	DWORD PTR -48[ebp]
	push	DWORD PTR -52[ebp]
	push	eax
	mov	DWORD PTR -172[ebp], eax
.LEHB16:
	call	_ZNSt7__cxx1112basic_stringIcSt11char_traitsIcESaIcEE9_M_appendEPKcj@PLT
.LEHE16:
	mov	eax, DWORD PTR -52[ebp]
	add	esp, 16
	cmp	eax, edi
	je	.L254
	sub	esp, 12
	push	eax
	call	_ZdlPv@PLT
	add	esp, 16
.L254:
	mov	eax, DWORD PTR -76[ebp]
	cmp	eax, DWORD PTR -160[ebp]
	je	.L255
	sub	esp, 12
	mov	ebx, esi
	push	eax
	call	_ZdlPv@PLT
	add	esp, 16
.L255:
	mov	eax, DWORD PTR -124[ebp]
	cmp	eax, DWORD PTR -156[ebp]
	je	.L256
	sub	esp, 12
	mov	ebx, esi
	push	eax
	call	_ZdlPv@PLT
	add	esp, 16
.L256:
	mov	eax, DWORD PTR -148[ebp]
	lea	edx, -140[ebp]
	cmp	eax, edx
	je	.L257
	sub	esp, 12
	mov	ebx, esi
	push	eax
	call	_ZdlPv@PLT
	add	esp, 16
.L257:
	mov	eax, DWORD PTR -100[ebp]
	cmp	eax, DWORD PTR -168[ebp]
	je	.L258
	sub	esp, 12
	mov	ebx, esi
	push	eax
	call	_ZdlPv@PLT
	add	esp, 16
.L258:
	sub	esp, 12
	push	DWORD PTR -164[ebp]
.LEHB17:
	call	_Z2sxB5cxx11v
.LEHE17:
	mov	eax, 2147483647
	sub	eax, DWORD PTR -72[ebp]
	add	esp, 12
	cmp	eax, 4
	jbe	.L303
	sub	esp, 4
	lea	eax, .LC13@GOTOFF[esi]
	mov	ebx, esi
	push	5
	push	eax
	push	DWORD PTR -164[ebp]
.LEHB18:
	call	_ZNSt7__cxx1112basic_stringIcSt11char_traitsIcESaIcEE9_M_appendEPKcj@PLT
.LEHE18:
	mov	DWORD PTR -52[ebp], edi
	mov	ecx, DWORD PTR [eax]
	lea	edx, 8[eax]
	add	esp, 16
	cmp	ecx, edx
	je	.L304
	mov	DWORD PTR -52[ebp], ecx
	mov	ecx, DWORD PTR 8[eax]
	mov	DWORD PTR -44[ebp], ecx
.L261:
	mov	ecx, DWORD PTR 4[eax]
	sub	esp, 4
	mov	ebx, esi
	mov	DWORD PTR -48[ebp], ecx
	mov	DWORD PTR [eax], edx
	mov	DWORD PTR 4[eax], 0
	mov	BYTE PTR 8[eax], 0
	push	DWORD PTR -48[ebp]
	push	DWORD PTR -52[ebp]
	push	DWORD PTR -172[ebp]
.LEHB19:
	call	_ZNSt7__cxx1112basic_stringIcSt11char_traitsIcESaIcEE9_M_appendEPKcj@PLT
.LEHE19:
	mov	eax, DWORD PTR -52[ebp]
	add	esp, 16
	cmp	eax, edi
	je	.L262
	sub	esp, 12
	push	eax
	call	_ZdlPv@PLT
	add	esp, 16
.L262:
	mov	eax, DWORD PTR -76[ebp]
	cmp	eax, DWORD PTR -160[ebp]
	je	.L263
	sub	esp, 12
	mov	ebx, esi
	push	eax
	call	_ZdlPv@PLT
	add	esp, 16
.L263:
	mov	eax, DWORD PTR _Z9localVarsB5cxx11@GOTOFF[esi]
	mov	edx, DWORD PTR _Z9localVarsB5cxx11@GOTOFF[esi+4]
	mov	DWORD PTR localVarLocation@GOTOFF[esi], 0
	cmp	eax, edx
	je	.L264
	mov	DWORD PTR -156[ebp], edx
	mov	edi, eax
	.p2align 4,,10
	.p2align 3
.L268:
	mov	edx, DWORD PTR [edi]
	lea	ecx, 8[edi]
	cmp	edx, ecx
	je	.L265
	sub	esp, 12
	mov	ebx, esi
	mov	DWORD PTR -160[ebp], eax
	add	edi, 24
	push	edx
	call	_ZdlPv@PLT
	add	esp, 16
	cmp	edi, DWORD PTR -156[ebp]
	mov	eax, DWORD PTR -160[ebp]
	jne	.L268
.L266:
	mov	DWORD PTR _Z9localVarsB5cxx11@GOTOFF[esi+4], eax
.L264:
	mov	eax, DWORD PTR _Z22LocalizedVariableNamesB5cxx11@GOTOFF[esi+4]
	lea	edx, -24[eax]
	sub	eax, 16
	mov	DWORD PTR _Z22LocalizedVariableNamesB5cxx11@GOTOFF[esi+4], edx
	mov	edx, DWORD PTR -8[eax]
	cmp	edx, eax
	je	.L241
	sub	esp, 12
	mov	ebx, esi
	push	edx
	call	_ZdlPv@PLT
	add	esp, 16
.L241:
	mov	eax, DWORD PTR -28[ebp]
	xor	eax, DWORD PTR gs:20
	jne	.L305
	lea	esp, -12[ebp]
	pop	ebx
	.cfi_remember_state
	.cfi_restore 3
	pop	esi
	.cfi_restore 6
	pop	edi
	.cfi_restore 7
	pop	ebp
	.cfi_restore 5
	.cfi_def_cfa 4, 4
	ret
	.p2align 4,,10
	.p2align 3
.L265:
	.cfi_restore_state
	add	edi, 24
	cmp	DWORD PTR -156[ebp], edi
	jne	.L268
	jmp	.L266
	.p2align 4,,10
	.p2align 3
.L299:
	sub	esp, 12
	push	DWORD PTR -160[ebp]
	mov	ebx, esi
	push	DWORD PTR -164[ebp]
	push	0
	push	0
	push	edi
.LEHB20:
	.cfi_escape 0x2e,0x20
	call	_ZNSt7__cxx1112basic_stringIcSt11char_traitsIcESaIcEE10_M_replaceEjjPKcj@PLT
.LEHE20:
	add	esp, 32
	jmp	.L248
	.p2align 4,,10
	.p2align 3
.L298:
	mov	ecx, DWORD PTR 8[eax]
	mov	DWORD PTR -116[ebp], ecx
	mov	ecx, DWORD PTR 12[eax]
	mov	DWORD PTR -112[ebp], ecx
	mov	ecx, DWORD PTR 16[eax]
	mov	DWORD PTR -108[ebp], ecx
	mov	ecx, DWORD PTR 20[eax]
	mov	DWORD PTR -104[ebp], ecx
	jmp	.L244
	.p2align 4,,10
	.p2align 3
.L300:
	mov	ecx, DWORD PTR 8[eax]
	mov	DWORD PTR -68[ebp], ecx
	mov	ecx, DWORD PTR 12[eax]
	mov	DWORD PTR -64[ebp], ecx
	mov	ecx, DWORD PTR 16[eax]
	mov	DWORD PTR -60[ebp], ecx
	mov	ecx, DWORD PTR 20[eax]
	mov	DWORD PTR -56[ebp], ecx
	jmp	.L250
	.p2align 4,,10
	.p2align 3
.L302:
	mov	ecx, DWORD PTR 8[eax]
	mov	DWORD PTR -44[ebp], ecx
	mov	ecx, DWORD PTR 12[eax]
	mov	DWORD PTR -40[ebp], ecx
	mov	ecx, DWORD PTR 16[eax]
	mov	DWORD PTR -36[ebp], ecx
	mov	ecx, DWORD PTR 20[eax]
	mov	DWORD PTR -32[ebp], ecx
	jmp	.L253
	.p2align 4,,10
	.p2align 3
.L304:
	mov	ecx, DWORD PTR 8[eax]
	mov	DWORD PTR -44[ebp], ecx
	mov	ecx, DWORD PTR 12[eax]
	mov	DWORD PTR -40[ebp], ecx
	mov	ecx, DWORD PTR 16[eax]
	mov	DWORD PTR -36[ebp], ecx
	mov	ecx, DWORD PTR 20[eax]
	mov	DWORD PTR -32[ebp], ecx
	jmp	.L261
.L305:
	call	__stack_chk_fail_local
.L301:
	sub	esp, 12
	lea	eax, .LC1@GOTOFF[esi]
	mov	ebx, esi
	push	eax
.LEHB21:
	.cfi_escape 0x2e,0x10
	call	_ZSt20__throw_length_errorPKc@PLT
.LEHE21:
.L297:
	sub	esp, 12
	lea	eax, .LC1@GOTOFF[esi]
	mov	ebx, esi
	push	eax
.LEHB22:
	call	_ZSt20__throw_length_errorPKc@PLT
.LEHE22:
.L303:
	sub	esp, 12
	lea	eax, .LC1@GOTOFF[esi]
	mov	ebx, esi
	push	eax
.LEHB23:
	call	_ZSt20__throw_length_errorPKc@PLT
.LEHE23:
.L292:
	mov	edi, eax
	jmp	.L282
.L290:
	mov	edi, eax
	jmp	.L272
.L288:
	mov	edi, eax
	lea	eax, -92[ebp]
	mov	DWORD PTR -168[ebp], eax
	jmp	.L276
.L293:
	mov	DWORD PTR -156[ebp], eax
	jmp	.L280
.L287:
	mov	edi, eax
	lea	eax, -92[ebp]
	mov	DWORD PTR -168[ebp], eax
	jmp	.L278
.L291:
	mov	DWORD PTR -164[ebp], eax
	jmp	.L270
.L289:
	mov	edi, eax
	jmp	.L274
	.section	.gcc_except_table
.LLSDA3141:
	.byte	0xff
	.byte	0xff
	.byte	0x1
	.uleb128 .LLSDACSE3141-.LLSDACSB3141
.LLSDACSB3141:
	.uleb128 .LEHB11-.LFB3141
	.uleb128 .LEHE11-.LEHB11
	.uleb128 0
	.uleb128 0
	.uleb128 .LEHB12-.LFB3141
	.uleb128 .LEHE12-.LEHB12
	.uleb128 .L287-.LFB3141
	.uleb128 0
	.uleb128 .LEHB13-.LFB3141
	.uleb128 .LEHE13-.LEHB13
	.uleb128 .L288-.LFB3141
	.uleb128 0
	.uleb128 .LEHB14-.LFB3141
	.uleb128 .LEHE14-.LEHB14
	.uleb128 .L289-.LFB3141
	.uleb128 0
	.uleb128 .LEHB15-.LFB3141
	.uleb128 .LEHE15-.LEHB15
	.uleb128 .L290-.LFB3141
	.uleb128 0
	.uleb128 .LEHB16-.LFB3141
	.uleb128 .LEHE16-.LEHB16
	.uleb128 .L291-.LFB3141
	.uleb128 0
	.uleb128 .LEHB17-.LFB3141
	.uleb128 .LEHE17-.LEHB17
	.uleb128 0
	.uleb128 0
	.uleb128 .LEHB18-.LFB3141
	.uleb128 .LEHE18-.LEHB18
	.uleb128 .L292-.LFB3141
	.uleb128 0
	.uleb128 .LEHB19-.LFB3141
	.uleb128 .LEHE19-.LEHB19
	.uleb128 .L293-.LFB3141
	.uleb128 0
	.uleb128 .LEHB20-.LFB3141
	.uleb128 .LEHE20-.LEHB20
	.uleb128 .L289-.LFB3141
	.uleb128 0
	.uleb128 .LEHB21-.LFB3141
	.uleb128 .LEHE21-.LEHB21
	.uleb128 .L290-.LFB3141
	.uleb128 0
	.uleb128 .LEHB22-.LFB3141
	.uleb128 .LEHE22-.LEHB22
	.uleb128 .L288-.LFB3141
	.uleb128 0
	.uleb128 .LEHB23-.LFB3141
	.uleb128 .LEHE23-.LEHB23
	.uleb128 .L292-.LFB3141
	.uleb128 0
.LLSDACSE3141:
	.text
	.cfi_endproc
	.section	.text.unlikely
	.cfi_startproc
	.cfi_personality 0x9b,DW.ref.__gxx_personality_v0
	.cfi_lsda 0x1b,.LLSDAC3141
	.type	_Z8doReturnv.cold.194, @function
_Z8doReturnv.cold.194:
.LFSB3141:
.L280:
	.cfi_def_cfa 5, 8
	.cfi_offset 3, -20
	.cfi_offset 5, -8
	.cfi_offset 6, -16
	.cfi_offset 7, -12
	mov	eax, DWORD PTR -52[ebp]
	cmp	eax, edi
	je	.L281
	sub	esp, 12
	mov	ebx, esi
	push	eax
	call	_ZdlPv@PLT
	add	esp, 16
.L281:
	mov	edi, DWORD PTR -156[ebp]
.L282:
	mov	eax, DWORD PTR -76[ebp]
	cmp	eax, DWORD PTR -160[ebp]
	je	.L283
	sub	esp, 12
	mov	ebx, esi
	push	eax
	call	_ZdlPv@PLT
	add	esp, 16
.L283:
	sub	esp, 12
	mov	ebx, esi
	push	edi
.LEHB24:
	call	_Unwind_Resume@PLT
.L270:
	mov	eax, DWORD PTR -52[ebp]
	cmp	eax, edi
	je	.L271
	sub	esp, 12
	mov	ebx, esi
	push	eax
	call	_ZdlPv@PLT
	add	esp, 16
.L271:
	mov	edi, DWORD PTR -164[ebp]
.L272:
	mov	eax, DWORD PTR -76[ebp]
	cmp	eax, DWORD PTR -160[ebp]
	je	.L274
	sub	esp, 12
	mov	ebx, esi
	push	eax
	call	_ZdlPv@PLT
	add	esp, 16
.L274:
	mov	eax, DWORD PTR -124[ebp]
	cmp	eax, DWORD PTR -156[ebp]
	je	.L276
	sub	esp, 12
	mov	ebx, esi
	push	eax
	call	_ZdlPv@PLT
	add	esp, 16
.L276:
	mov	eax, DWORD PTR -148[ebp]
	lea	edx, -140[ebp]
	cmp	eax, edx
	je	.L278
	sub	esp, 12
	mov	ebx, esi
	push	eax
	call	_ZdlPv@PLT
	add	esp, 16
.L278:
	mov	eax, DWORD PTR -100[ebp]
	cmp	eax, DWORD PTR -168[ebp]
	je	.L279
	sub	esp, 12
	mov	ebx, esi
	push	eax
	call	_ZdlPv@PLT
	add	esp, 16
.L279:
	sub	esp, 12
	mov	ebx, esi
	push	edi
	call	_Unwind_Resume@PLT
.LEHE24:
	.cfi_endproc
.LFE3141:
	.section	.gcc_except_table
.LLSDAC3141:
	.byte	0xff
	.byte	0xff
	.byte	0x1
	.uleb128 .LLSDACSEC3141-.LLSDACSBC3141
.LLSDACSBC3141:
	.uleb128 .LEHB24-.LCOLDB14
	.uleb128 .LEHE24-.LEHB24
	.uleb128 0
	.uleb128 0
.LLSDACSEC3141:
	.section	.text.unlikely
	.text
	.size	_Z8doReturnv, .-_Z8doReturnv
	.section	.text.unlikely
	.size	_Z8doReturnv.cold.194, .-_Z8doReturnv.cold.194
.LCOLDE14:
	.text
.LHOTE14:
	.section	.rodata.str1.1
.LC15:
	.string	"=="
.LC16:
	.string	"!="
.LC17:
	.string	">"
.LC18:
	.string	"<"
.LC19:
	.string	"jge "
.LC20:
	.string	"!>"
.LC21:
	.string	"jg "
.LC22:
	.string	">!"
.LC23:
	.string	"!<"
.LC24:
	.string	"<!"
.LC25:
	.string	"=>"
.LC26:
	.string	"jl "
.LC27:
	.string	">="
.LC28:
	.string	"=<"
.LC29:
	.string	"<="
.LC30:
	.string	"jmp "
	.text
	.p2align 4,,15
	.globl	_Z7getJumpNSt7__cxx1112basic_stringIcSt11char_traitsIcESaIcEEE
	.type	_Z7getJumpNSt7__cxx1112basic_stringIcSt11char_traitsIcESaIcEEE, @function
_Z7getJumpNSt7__cxx1112basic_stringIcSt11char_traitsIcESaIcEEE:
.LFB3143:
	.cfi_startproc
	push	edi
	.cfi_def_cfa_offset 8
	.cfi_offset 7, -8
	push	esi
	.cfi_def_cfa_offset 12
	.cfi_offset 6, -12
	push	ebx
	.cfi_def_cfa_offset 16
	.cfi_offset 3, -16
	mov	edi, DWORD PTR 20[esp]
	call	__x86.get_pc_thunk.bx
	add	ebx, OFFSET FLAT:_GLOBAL_OFFSET_TABLE_
	mov	esi, DWORD PTR 16[esp]
	sub	esp, 8
	.cfi_def_cfa_offset 24
	lea	eax, .LC15@GOTOFF[ebx]
	push	eax
	.cfi_def_cfa_offset 28
	push	edi
	.cfi_def_cfa_offset 32
	call	_ZNKSt7__cxx1112basic_stringIcSt11char_traitsIcESaIcEE7compareEPKc@PLT
	add	esp, 16
	.cfi_def_cfa_offset 16
	test	eax, eax
	jne	.L307
	lea	eax, 8[esi]
	mov	DWORD PTR 8[esi], 543518314
	mov	DWORD PTR [esi], eax
	mov	DWORD PTR 4[esi], 4
	mov	BYTE PTR 12[esi], 0
.L306:
	mov	eax, esi
	pop	ebx
	.cfi_remember_state
	.cfi_restore 3
	.cfi_def_cfa_offset 12
	pop	esi
	.cfi_restore 6
	.cfi_def_cfa_offset 8
	pop	edi
	.cfi_restore 7
	.cfi_def_cfa_offset 4
	ret	4
	.p2align 4,,10
	.p2align 3
.L307:
	.cfi_restore_state
	sub	esp, 8
	.cfi_def_cfa_offset 24
	lea	eax, .LC16@GOTOFF[ebx]
	push	eax
	.cfi_def_cfa_offset 28
	push	edi
	.cfi_def_cfa_offset 32
	call	_ZNKSt7__cxx1112basic_stringIcSt11char_traitsIcESaIcEE7compareEPKc@PLT
	add	esp, 16
	.cfi_def_cfa_offset 16
	test	eax, eax
	jne	.L309
	lea	eax, 8[esi]
	mov	ebx, 25962
	mov	BYTE PTR 10[esi], 32
	mov	DWORD PTR [esi], eax
	mov	eax, esi
	mov	WORD PTR 8[esi], bx
	mov	DWORD PTR 4[esi], 3
	mov	BYTE PTR 11[esi], 0
	pop	ebx
	.cfi_remember_state
	.cfi_restore 3
	.cfi_def_cfa_offset 12
	pop	esi
	.cfi_restore 6
	.cfi_def_cfa_offset 8
	pop	edi
	.cfi_restore 7
	.cfi_def_cfa_offset 4
	ret	4
	.p2align 4,,10
	.p2align 3
.L309:
	.cfi_restore_state
	sub	esp, 8
	.cfi_def_cfa_offset 24
	lea	eax, .LC17@GOTOFF[ebx]
	push	eax
	.cfi_def_cfa_offset 28
	push	edi
	.cfi_def_cfa_offset 32
	call	_ZNKSt7__cxx1112basic_stringIcSt11char_traitsIcESaIcEE7compareEPKc@PLT
	add	esp, 16
	.cfi_def_cfa_offset 16
	test	eax, eax
	je	.L335
	sub	esp, 8
	.cfi_def_cfa_offset 24
	lea	eax, .LC18@GOTOFF[ebx]
	push	eax
	.cfi_def_cfa_offset 28
	push	edi
	.cfi_def_cfa_offset 32
	call	_ZNKSt7__cxx1112basic_stringIcSt11char_traitsIcESaIcEE7compareEPKc@PLT
	add	esp, 16
	.cfi_def_cfa_offset 16
	test	eax, eax
	jne	.L311
	lea	edx, .LC19@GOTOFF[ebx]
	mov	eax, esi
	call	_ZNSt7__cxx1112basic_stringIcSt11char_traitsIcESaIcEEC2EPKcRKS3_.isra.85
	jmp	.L306
	.p2align 4,,10
	.p2align 3
.L335:
	lea	eax, 8[esi]
	mov	DWORD PTR 8[esi], 543517802
	mov	DWORD PTR [esi], eax
	mov	eax, esi
	mov	DWORD PTR 4[esi], 4
	mov	BYTE PTR 12[esi], 0
	pop	ebx
	.cfi_remember_state
	.cfi_restore 3
	.cfi_def_cfa_offset 12
	pop	esi
	.cfi_restore 6
	.cfi_def_cfa_offset 8
	pop	edi
	.cfi_restore 7
	.cfi_def_cfa_offset 4
	ret	4
	.p2align 4,,10
	.p2align 3
.L311:
	.cfi_restore_state
	sub	esp, 8
	.cfi_def_cfa_offset 24
	lea	eax, .LC20@GOTOFF[ebx]
	push	eax
	.cfi_def_cfa_offset 28
	push	edi
	.cfi_def_cfa_offset 32
	call	_ZNKSt7__cxx1112basic_stringIcSt11char_traitsIcESaIcEE7compareEPKc@PLT
	add	esp, 16
	.cfi_def_cfa_offset 16
	test	eax, eax
	je	.L313
	sub	esp, 8
	.cfi_def_cfa_offset 24
	lea	eax, .LC22@GOTOFF[ebx]
	push	eax
	.cfi_def_cfa_offset 28
	push	edi
	.cfi_def_cfa_offset 32
	call	_ZNKSt7__cxx1112basic_stringIcSt11char_traitsIcESaIcEE7compareEPKc@PLT
	add	esp, 16
	.cfi_def_cfa_offset 16
	test	eax, eax
	je	.L313
	sub	esp, 8
	.cfi_def_cfa_offset 24
	lea	eax, .LC23@GOTOFF[ebx]
	push	eax
	.cfi_def_cfa_offset 28
	push	edi
	.cfi_def_cfa_offset 32
	call	_ZNKSt7__cxx1112basic_stringIcSt11char_traitsIcESaIcEE7compareEPKc@PLT
	add	esp, 16
	.cfi_def_cfa_offset 16
	test	eax, eax
	je	.L314
	sub	esp, 8
	.cfi_def_cfa_offset 24
	lea	eax, .LC24@GOTOFF[ebx]
	push	eax
	.cfi_def_cfa_offset 28
	push	edi
	.cfi_def_cfa_offset 32
	call	_ZNKSt7__cxx1112basic_stringIcSt11char_traitsIcESaIcEE7compareEPKc@PLT
	add	esp, 16
	.cfi_def_cfa_offset 16
	test	eax, eax
	jne	.L336
.L314:
	lea	edx, .LC26@GOTOFF[ebx]
	mov	eax, esi
	call	_ZNSt7__cxx1112basic_stringIcSt11char_traitsIcESaIcEEC2EPKcRKS3_.isra.85
	jmp	.L306
	.p2align 4,,10
	.p2align 3
.L313:
	lea	edx, .LC21@GOTOFF[ebx]
	mov	eax, esi
	call	_ZNSt7__cxx1112basic_stringIcSt11char_traitsIcESaIcEEC2EPKcRKS3_.isra.85
	jmp	.L306
.L336:
	sub	esp, 8
	.cfi_def_cfa_offset 24
	lea	eax, .LC25@GOTOFF[ebx]
	push	eax
	.cfi_def_cfa_offset 28
	push	edi
	.cfi_def_cfa_offset 32
	call	_ZNKSt7__cxx1112basic_stringIcSt11char_traitsIcESaIcEE7compareEPKc@PLT
	add	esp, 16
	.cfi_def_cfa_offset 16
	test	eax, eax
	je	.L314
	lea	eax, .LC27@GOTOFF[ebx]
	push	ecx
	.cfi_def_cfa_offset 20
	push	ecx
	.cfi_def_cfa_offset 24
	push	eax
	.cfi_def_cfa_offset 28
	push	edi
	.cfi_def_cfa_offset 32
	call	_ZNKSt7__cxx1112basic_stringIcSt11char_traitsIcESaIcEE7compareEPKc@PLT
	add	esp, 16
	.cfi_def_cfa_offset 16
	test	eax, eax
	je	.L314
	lea	eax, .LC28@GOTOFF[ebx]
	push	edx
	.cfi_def_cfa_offset 20
	push	edx
	.cfi_def_cfa_offset 24
	push	eax
	.cfi_def_cfa_offset 28
	push	edi
	.cfi_def_cfa_offset 32
	call	_ZNKSt7__cxx1112basic_stringIcSt11char_traitsIcESaIcEE7compareEPKc@PLT
	add	esp, 16
	.cfi_def_cfa_offset 16
	test	eax, eax
	je	.L313
	push	eax
	.cfi_def_cfa_offset 20
	push	eax
	.cfi_def_cfa_offset 24
	lea	eax, .LC29@GOTOFF[ebx]
	push	eax
	.cfi_def_cfa_offset 28
	push	edi
	.cfi_def_cfa_offset 32
	call	_ZNKSt7__cxx1112basic_stringIcSt11char_traitsIcESaIcEE7compareEPKc@PLT
	add	esp, 16
	.cfi_def_cfa_offset 16
	test	eax, eax
	je	.L313
	lea	edx, .LC30@GOTOFF[ebx]
	mov	eax, esi
	call	_ZNSt7__cxx1112basic_stringIcSt11char_traitsIcESaIcEEC2EPKcRKS3_.isra.85
	jmp	.L306
	.cfi_endproc
.LFE3143:
	.size	_Z7getJumpNSt7__cxx1112basic_stringIcSt11char_traitsIcESaIcEEE, .-_Z7getJumpNSt7__cxx1112basic_stringIcSt11char_traitsIcESaIcEEE
	.p2align 4,,15
	.globl	_Z6doElsev
	.type	_Z6doElsev, @function
_Z6doElsev:
.LFB3145:
	.cfi_startproc
	push	esi
	.cfi_def_cfa_offset 8
	.cfi_offset 6, -8
	push	ebx
	.cfi_def_cfa_offset 12
	.cfi_offset 3, -12
	call	__x86.get_pc_thunk.bx
	add	ebx, OFFSET FLAT:_GLOBAL_OFFSET_TABLE_
	sub	esp, 8
	.cfi_def_cfa_offset 20
	mov	eax, DWORD PTR _Z9jumpToEndB5cxx11@GOTOFF[ebx+4]
	lea	esi, _Z9codbufferB5cxx11@GOTOFF[ebx]
	sub	DWORD PTR savedIfToElse@GOTOFF[ebx], 1
	sub	DWORD PTR savedElseToEnd@GOTOFF[ebx], 1
	push	DWORD PTR -20[eax]
	.cfi_def_cfa_offset 24
	push	DWORD PTR -24[eax]
	.cfi_def_cfa_offset 28
	push	esi
	.cfi_def_cfa_offset 32
	call	_ZNSt7__cxx1112basic_stringIcSt11char_traitsIcESaIcEE9_M_appendEPKcj@PLT
	mov	eax, DWORD PTR _Z8ifToElseB5cxx11@GOTOFF[ebx+4]
	add	esp, 12
	.cfi_def_cfa_offset 20
	push	DWORD PTR -20[eax]
	.cfi_def_cfa_offset 24
	push	DWORD PTR -24[eax]
	.cfi_def_cfa_offset 28
	push	esi
	.cfi_def_cfa_offset 32
	call	_ZNSt7__cxx1112basic_stringIcSt11char_traitsIcESaIcEE9_M_appendEPKcj@PLT
	mov	eax, DWORD PTR _Z9jumpToEndB5cxx11@GOTOFF[ebx+4]
	add	esp, 16
	.cfi_def_cfa_offset 16
	lea	edx, -24[eax]
	sub	eax, 16
	mov	DWORD PTR _Z9jumpToEndB5cxx11@GOTOFF[ebx+4], edx
	mov	edx, DWORD PTR -8[eax]
	cmp	edx, eax
	je	.L338
	sub	esp, 12
	.cfi_def_cfa_offset 28
	push	edx
	.cfi_def_cfa_offset 32
	call	_ZdlPv@PLT
	add	esp, 16
	.cfi_def_cfa_offset 16
.L338:
	mov	eax, DWORD PTR _Z8ifToElseB5cxx11@GOTOFF[ebx+4]
	lea	edx, -24[eax]
	sub	eax, 16
	mov	DWORD PTR _Z8ifToElseB5cxx11@GOTOFF[ebx+4], edx
	mov	edx, DWORD PTR -8[eax]
	cmp	edx, eax
	je	.L337
	sub	esp, 12
	.cfi_def_cfa_offset 28
	push	edx
	.cfi_def_cfa_offset 32
	call	_ZdlPv@PLT
	add	esp, 16
	.cfi_def_cfa_offset 16
.L337:
	add	esp, 4
	.cfi_def_cfa_offset 12
	pop	ebx
	.cfi_restore 3
	.cfi_def_cfa_offset 8
	pop	esi
	.cfi_restore 6
	.cfi_def_cfa_offset 4
	ret
	.cfi_endproc
.LFE3145:
	.size	_Z6doElsev, .-_Z6doElsev
	.p2align 4,,15
	.globl	_Z5doEndv
	.type	_Z5doEndv, @function
_Z5doEndv:
.LFB3146:
	.cfi_startproc
	push	ebx
	.cfi_def_cfa_offset 8
	.cfi_offset 3, -8
	call	__x86.get_pc_thunk.bx
	add	ebx, OFFSET FLAT:_GLOBAL_OFFSET_TABLE_
	sub	esp, 12
	.cfi_def_cfa_offset 20
	mov	eax, DWORD PTR _Z9elseToEndB5cxx11@GOTOFF[ebx+4]
	push	DWORD PTR -20[eax]
	.cfi_def_cfa_offset 24
	push	DWORD PTR -24[eax]
	.cfi_def_cfa_offset 28
	lea	eax, _Z9codbufferB5cxx11@GOTOFF[ebx]
	push	eax
	.cfi_def_cfa_offset 32
	call	_ZNSt7__cxx1112basic_stringIcSt11char_traitsIcESaIcEE9_M_appendEPKcj@PLT
	mov	eax, DWORD PTR _Z9elseToEndB5cxx11@GOTOFF[ebx+4]
	add	esp, 16
	.cfi_def_cfa_offset 16
	lea	edx, -24[eax]
	sub	eax, 16
	mov	DWORD PTR _Z9elseToEndB5cxx11@GOTOFF[ebx+4], edx
	mov	edx, DWORD PTR -8[eax]
	cmp	edx, eax
	je	.L342
	sub	esp, 12
	.cfi_def_cfa_offset 28
	push	edx
	.cfi_def_cfa_offset 32
	call	_ZdlPv@PLT
	add	esp, 16
	.cfi_def_cfa_offset 16
.L342:
	sub	DWORD PTR inLayer@GOTOFF[ebx], 1
	add	esp, 8
	.cfi_def_cfa_offset 8
	pop	ebx
	.cfi_restore 3
	.cfi_def_cfa_offset 4
	ret
	.cfi_endproc
.LFE3146:
	.size	_Z5doEndv, .-_Z5doEndv
	.section	.rodata.str1.1
.LC31:
	.string	"basic_string::replace"
	.section	.rodata.str1.4
	.align 4
.LC32:
	.string	"%s: __pos (which is %zu) > this->size() (which is %zu)"
	.text
	.p2align 4,,15
	.globl	_Z7replaceRNSt7__cxx1112basic_stringIcSt11char_traitsIcESaIcEEERKS4_S7_
	.type	_Z7replaceRNSt7__cxx1112basic_stringIcSt11char_traitsIcESaIcEEERKS4_S7_, @function
_Z7replaceRNSt7__cxx1112basic_stringIcSt11char_traitsIcESaIcEEERKS4_S7_:
.LFB3147:
	.cfi_startproc
	push	ebp
	.cfi_def_cfa_offset 8
	.cfi_offset 5, -8
	push	edi
	.cfi_def_cfa_offset 12
	.cfi_offset 7, -12
	push	esi
	.cfi_def_cfa_offset 16
	.cfi_offset 6, -16
	push	ebx
	.cfi_def_cfa_offset 20
	.cfi_offset 3, -20
	call	__x86.get_pc_thunk.bx
	add	ebx, OFFSET FLAT:_GLOBAL_OFFSET_TABLE_
	sub	esp, 12
	.cfi_def_cfa_offset 32
	mov	esi, DWORD PTR 36[esp]
	mov	edi, DWORD PTR 40[esp]
	push	DWORD PTR 4[esi]
	.cfi_def_cfa_offset 36
	push	0
	.cfi_def_cfa_offset 40
	push	DWORD PTR [esi]
	.cfi_def_cfa_offset 44
	push	DWORD PTR 44[esp]
	.cfi_def_cfa_offset 48
	call	_ZNKSt7__cxx1112basic_stringIcSt11char_traitsIcESaIcEE4findEPKcjj@PLT
	add	esp, 16
	.cfi_def_cfa_offset 32
	cmp	eax, -1
	je	.L347
	mov	ecx, DWORD PTR 32[esp]
	mov	ebp, DWORD PTR 4[edi]
	mov	edi, DWORD PTR [edi]
	mov	ecx, DWORD PTR 4[ecx]
	mov	edx, ecx
	sub	edx, eax
	cmp	DWORD PTR 4[esi], edx
	cmovbe	edx, DWORD PTR 4[esi]
	cmp	eax, ecx
	ja	.L349
	sub	esp, 12
	.cfi_def_cfa_offset 44
	push	ebp
	.cfi_def_cfa_offset 48
	push	edi
	.cfi_def_cfa_offset 52
	push	edx
	.cfi_def_cfa_offset 56
	push	eax
	.cfi_def_cfa_offset 60
	push	DWORD PTR 60[esp]
	.cfi_def_cfa_offset 64
	call	_ZNSt7__cxx1112basic_stringIcSt11char_traitsIcESaIcEE10_M_replaceEjjPKcj@PLT
	add	esp, 32
	.cfi_def_cfa_offset 32
	mov	eax, 1
	add	esp, 12
	.cfi_remember_state
	.cfi_def_cfa_offset 20
	pop	ebx
	.cfi_restore 3
	.cfi_def_cfa_offset 16
	pop	esi
	.cfi_restore 6
	.cfi_def_cfa_offset 12
	pop	edi
	.cfi_restore 7
	.cfi_def_cfa_offset 8
	pop	ebp
	.cfi_restore 5
	.cfi_def_cfa_offset 4
	ret
	.p2align 4,,10
	.p2align 3
.L347:
	.cfi_restore_state
	add	esp, 12
	.cfi_remember_state
	.cfi_def_cfa_offset 20
	xor	eax, eax
	pop	ebx
	.cfi_restore 3
	.cfi_def_cfa_offset 16
	pop	esi
	.cfi_restore 6
	.cfi_def_cfa_offset 12
	pop	edi
	.cfi_restore 7
	.cfi_def_cfa_offset 8
	pop	ebp
	.cfi_restore 5
	.cfi_def_cfa_offset 4
	ret
.L349:
	.cfi_restore_state
	push	ecx
	.cfi_def_cfa_offset 36
	push	eax
	.cfi_def_cfa_offset 40
	lea	eax, .LC31@GOTOFF[ebx]
	push	eax
	.cfi_def_cfa_offset 44
	lea	eax, .LC32@GOTOFF[ebx]
	push	eax
	.cfi_def_cfa_offset 48
	call	_ZSt24__throw_out_of_range_fmtPKcz@PLT
	.cfi_endproc
.LFE3147:
	.size	_Z7replaceRNSt7__cxx1112basic_stringIcSt11char_traitsIcESaIcEEERKS4_S7_, .-_Z7replaceRNSt7__cxx1112basic_stringIcSt11char_traitsIcESaIcEEERKS4_S7_
	.p2align 4,,15
	.globl	_Z7endTypev
	.type	_Z7endTypev, @function
_Z7endTypev:
.LFB3157:
	.cfi_startproc
	push	ebx
	.cfi_def_cfa_offset 8
	.cfi_offset 3, -8
	call	__x86.get_pc_thunk.bx
	add	ebx, OFFSET FLAT:_GLOBAL_OFFSET_TABLE_
	sub	esp, 8
	.cfi_def_cfa_offset 16
	mov	eax, DWORD PTR _Z9classNameB5cxx11@GOTOFF[ebx+4]
	lea	edx, -24[eax]
	sub	eax, 16
	mov	DWORD PTR _Z9classNameB5cxx11@GOTOFF[ebx+4], edx
	mov	edx, DWORD PTR -8[eax]
	cmp	edx, eax
	je	.L350
	sub	esp, 12
	.cfi_def_cfa_offset 28
	push	edx
	.cfi_def_cfa_offset 32
	call	_ZdlPv@PLT
	add	esp, 16
	.cfi_def_cfa_offset 16
.L350:
	add	esp, 8
	.cfi_def_cfa_offset 8
	pop	ebx
	.cfi_restore 3
	.cfi_def_cfa_offset 4
	ret
	.cfi_endproc
.LFE3157:
	.size	_Z7endTypev, .-_Z7endTypev
	.section	.rodata.str1.1
.LC33:
	.string	"Filename was empty"
.LC34:
	.string	"Couldn't open the file"
	.section	.text.unlikely
.LCOLDB35:
	.text
.LHOTB35:
	.p2align 4,,15
	.globl	_Z8readFileNSt7__cxx1112basic_stringIcSt11char_traitsIcESaIcEEE
	.type	_Z8readFileNSt7__cxx1112basic_stringIcSt11char_traitsIcESaIcEEE, @function
_Z8readFileNSt7__cxx1112basic_stringIcSt11char_traitsIcESaIcEEE:
.LFB3164:
	.cfi_startproc
	.cfi_personality 0x9b,DW.ref.__gxx_personality_v0
	.cfi_lsda 0x1b,.LLSDA3164
	push	ebp
	.cfi_def_cfa_offset 8
	.cfi_offset 5, -8
	mov	ebp, esp
	.cfi_def_cfa_register 5
	push	edi
	push	esi
	.cfi_offset 7, -12
	.cfi_offset 6, -16
	call	__x86.get_pc_thunk.si
	add	esi, OFFSET FLAT:_GLOBAL_OFFSET_TABLE_
	push	ebx
	sub	esp, 364
	.cfi_offset 3, -20
	mov	eax, DWORD PTR 8[ebp]
	mov	edi, DWORD PTR 12[ebp]
	mov	DWORD PTR -340[ebp], eax
	mov	ecx, DWORD PTR 4[edi]
	mov	eax, DWORD PTR gs:20
	mov	DWORD PTR -28[ebp], eax
	xor	eax, eax
	test	ecx, ecx
	je	.L384
	sub	esp, 12
	lea	ebx, -164[ebp]
	lea	eax, -308[ebp]
	push	ebx
	mov	DWORD PTR -344[ebp], ebx
	mov	ebx, esi
	mov	DWORD PTR -332[ebp], eax
	call	_ZNSt8ios_baseC2Ev@PLT
	mov	edx, DWORD PTR _ZTVSt9basic_iosIcSt11char_traitsIcEE@GOT[esi]
	mov	DWORD PTR -52[ebp], 0
	mov	DWORD PTR -44[ebp], 0
	lea	eax, 8[edx]
	mov	DWORD PTR -360[ebp], edx
	mov	DWORD PTR -164[ebp], eax
	xor	eax, eax
	mov	WORD PTR -48[ebp], ax
	mov	eax, DWORD PTR _ZTTSt14basic_ifstreamIcSt11char_traitsIcEE@GOT[esi]
	mov	DWORD PTR -40[ebp], 0
	mov	edx, DWORD PTR 4[eax]
	mov	ecx, DWORD PTR 8[eax]
	mov	DWORD PTR -36[ebp], 0
	mov	DWORD PTR -32[ebp], 0
	mov	eax, DWORD PTR -12[edx]
	mov	DWORD PTR -308[ebp], edx
	mov	DWORD PTR -356[ebp], ecx
	mov	DWORD PTR -308[ebp+eax], ecx
	pop	eax
	mov	eax, DWORD PTR -332[ebp]
	pop	ecx
	push	0
	mov	DWORD PTR -304[ebp], 0
	add	eax, DWORD PTR -12[edx]
	push	eax
	mov	DWORD PTR -352[ebp], edx
.LEHB25:
	.cfi_escape 0x2e,0x10
	call	_ZNSt9basic_iosIcSt11char_traitsIcEE4initEPSt15basic_streambufIcS1_E@PLT
.LEHE25:
	mov	edx, DWORD PTR _ZTVSt14basic_ifstreamIcSt11char_traitsIcEE@GOT[esi]
	lea	ebx, -300[ebp]
	mov	DWORD PTR -336[ebp], ebx
	lea	eax, 12[edx]
	mov	DWORD PTR [esp], ebx
	mov	ebx, esi
	mov	DWORD PTR -308[ebp], eax
	lea	eax, 32[edx]
	mov	DWORD PTR -364[ebp], edx
	mov	DWORD PTR -164[ebp], eax
.LEHB26:
	call	_ZNSt13basic_filebufIcSt11char_traitsIcEEC1Ev@PLT
.LEHE26:
	pop	ecx
	pop	eax
	push	DWORD PTR -336[ebp]
	push	DWORD PTR -344[ebp]
.LEHB27:
	call	_ZNSt9basic_iosIcSt11char_traitsIcEE4initEPSt15basic_streambufIcS1_E@PLT
	add	esp, 12
	push	14
	push	DWORD PTR [edi]
	push	DWORD PTR -336[ebp]
	call	_ZNSt13basic_filebufIcSt11char_traitsIcEE4openEPKcSt13_Ios_Openmode@PLT
	mov	edx, DWORD PTR -308[ebp]
	mov	ecx, DWORD PTR -332[ebp]
	add	esp, 16
	add	ecx, DWORD PTR -12[edx]
	test	eax, eax
	je	.L385
	sub	esp, 8
	push	0
	push	ecx
	call	_ZNSt9basic_iosIcSt11char_traitsIcEE5clearESt12_Ios_Iostate@PLT
.LEHE27:
.L383:
	add	esp, 16
	lea	eax, -244[ebp]
	mov	ebx, esi
	sub	esp, 12
	mov	DWORD PTR -368[ebp], eax
	push	eax
	call	_ZNKSt12__basic_fileIcE7is_openEv@PLT
	add	esp, 16
	test	al, al
	je	.L386
	sub	esp, 8
	lea	eax, -324[ebp]
	push	DWORD PTR -332[ebp]
	push	eax
.LEHB28:
	call	_ZNSi5tellgEv@PLT
	add	esp, 12
	mov	edi, DWORD PTR -324[ebp]
	push	0
	push	0
	push	0
	push	DWORD PTR -332[ebp]
	call	_ZNSi5seekgExSt12_Ios_Seekdir@PLT
	mov	DWORD PTR -348[ebp], edi
	mov	DWORD PTR [esp], edi
	call	_Znaj@PLT
	add	esp, 12
	push	DWORD PTR -348[ebp]
	mov	edi, eax
	push	0
	push	eax
	call	memset@PLT
	add	esp, 12
	push	DWORD PTR -348[ebp]
	push	edi
	push	DWORD PTR -332[ebp]
	call	_ZNSi4readEPci@PLT
	pop	eax
	push	DWORD PTR -336[ebp]
	call	_ZNSt13basic_filebufIcSt11char_traitsIcEE5closeEv@PLT
.LEHE28:
	add	esp, 16
	test	eax, eax
	je	.L387
.L362:
	mov	eax, DWORD PTR -340[ebp]
	sub	esp, 12
	mov	ebx, esi
	lea	edx, 8[eax]
	mov	DWORD PTR [eax], edx
	push	edi
	mov	DWORD PTR -348[ebp], edx
	call	strlen@PLT
	add	esp, 16
	mov	edx, DWORD PTR -348[ebp]
	cmp	eax, 15
	mov	DWORD PTR -372[ebp], eax
	mov	DWORD PTR -328[ebp], eax
	ja	.L388
	cmp	eax, 1
	jne	.L365
	movzx	ecx, BYTE PTR [edi]
	mov	edi, DWORD PTR -340[ebp]
	mov	BYTE PTR 8[edi], cl
.L366:
	mov	ecx, DWORD PTR -364[ebp]
	mov	edi, DWORD PTR -340[ebp]
	sub	esp, 12
	mov	ebx, esi
	mov	DWORD PTR 4[edi], eax
	mov	BYTE PTR [edx+eax], 0
	lea	eax, 12[ecx]
	mov	DWORD PTR -308[ebp], eax
	lea	eax, 32[ecx]
	push	DWORD PTR -336[ebp]
	mov	DWORD PTR -164[ebp], eax
	mov	eax, DWORD PTR _ZTVSt13basic_filebufIcSt11char_traitsIcEE@GOT[esi]
	add	eax, 8
	mov	DWORD PTR -300[ebp], eax
	call	_ZNSt13basic_filebufIcSt11char_traitsIcEE5closeEv@PLT
	pop	edx
	push	DWORD PTR -368[ebp]
	call	_ZNSt12__basic_fileIcED1Ev@PLT
	mov	eax, DWORD PTR _ZTVSt15basic_streambufIcSt11char_traitsIcEE@GOT[esi]
	add	eax, 8
	mov	DWORD PTR -300[ebp], eax
	lea	eax, -272[ebp]
	mov	DWORD PTR [esp], eax
	call	_ZNSt6localeD1Ev@PLT
	mov	eax, DWORD PTR -352[ebp]
	mov	ebx, DWORD PTR -356[ebp]
	pop	ecx
	mov	DWORD PTR -308[ebp], eax
	mov	eax, DWORD PTR -12[eax]
	push	DWORD PTR -344[ebp]
	mov	DWORD PTR -308[ebp+eax], ebx
	mov	ebx, esi
	mov	DWORD PTR -304[ebp], 0
	mov	eax, DWORD PTR -360[ebp]
	add	eax, 8
	mov	DWORD PTR -164[ebp], eax
	call	_ZNSt8ios_baseD2Ev@PLT
	add	esp, 16
	mov	eax, edi
	mov	edi, DWORD PTR -28[ebp]
	xor	edi, DWORD PTR gs:20
	jne	.L389
	lea	esp, -12[ebp]
	pop	ebx
	.cfi_remember_state
	.cfi_restore 3
	pop	esi
	.cfi_restore 6
	pop	edi
	.cfi_restore 7
	pop	ebp
	.cfi_restore 5
	.cfi_def_cfa 4, 4
	ret	4
	.p2align 4,,10
	.p2align 3
.L365:
	.cfi_restore_state
	mov	ebx, DWORD PTR -372[ebp]
	test	ebx, ebx
	je	.L366
	jmp	.L364
	.p2align 4,,10
	.p2align 3
.L388:
	sub	esp, 4
	lea	eax, -328[ebp]
	push	0
	push	eax
	push	DWORD PTR -340[ebp]
.LEHB29:
	call	_ZNSt7__cxx1112basic_stringIcSt11char_traitsIcESaIcEE9_M_createERjj@PLT
.LEHE29:
	mov	ecx, DWORD PTR -340[ebp]
	mov	edx, eax
	add	esp, 16
	mov	DWORD PTR [ecx], eax
	mov	eax, DWORD PTR -328[ebp]
	mov	DWORD PTR 8[ecx], eax
.L364:
	sub	esp, 4
	push	DWORD PTR -372[ebp]
	mov	ebx, esi
	push	edi
	push	edx
	call	memcpy@PLT
	mov	edi, DWORD PTR -340[ebp]
	mov	eax, DWORD PTR -328[ebp]
	add	esp, 16
	mov	edx, DWORD PTR [edi]
	jmp	.L366
	.p2align 4,,10
	.p2align 3
.L385:
	mov	eax, DWORD PTR 20[ecx]
	sub	esp, 8
	or	eax, 4
	push	eax
	push	ecx
.LEHB30:
	call	_ZNSt9basic_iosIcSt11char_traitsIcEE5clearESt12_Ios_Iostate@PLT
.LEHE30:
	jmp	.L383
	.p2align 4,,10
	.p2align 3
.L387:
	mov	eax, DWORD PTR -308[ebp]
	mov	edx, DWORD PTR -332[ebp]
	sub	esp, 8
	add	edx, DWORD PTR -12[eax]
	mov	eax, DWORD PTR 20[edx]
	or	eax, 4
	push	eax
	push	edx
.LEHB31:
	call	_ZNSt9basic_iosIcSt11char_traitsIcEE5clearESt12_Ios_Iostate@PLT
.LEHE31:
	add	esp, 16
	jmp	.L362
.L389:
	call	__stack_chk_fail_local
.L386:
	sub	esp, 12
	push	8
	call	__cxa_allocate_exception@PLT
	mov	edi, eax
	mov	DWORD PTR -336[ebp], eax
	pop	eax
	lea	eax, .LC34@GOTOFF[esi]
	pop	edx
	push	eax
	push	edi
.LEHB32:
	call	_ZNSt13runtime_errorC1EPKc@PLT
.LEHE32:
	add	esp, 12
	push	DWORD PTR _ZNSt13runtime_errorD1Ev@GOT[esi]
	push	DWORD PTR _ZTISt13runtime_error@GOT[esi]
	push	edi
.LEHB33:
	call	__cxa_throw@PLT
.LEHE33:
.L384:
	sub	esp, 12
	mov	ebx, esi
	push	8
	call	__cxa_allocate_exception@PLT
	mov	edi, eax
	pop	eax
	lea	eax, .LC33@GOTOFF[esi]
	pop	edx
	push	eax
	push	edi
.LEHB34:
	call	_ZNSt13runtime_errorC1EPKc@PLT
.LEHE34:
	add	esp, 12
	push	DWORD PTR _ZNSt13runtime_errorD1Ev@GOT[esi]
	push	DWORD PTR _ZTISt13runtime_error@GOT[esi]
	push	edi
.LEHB35:
	call	__cxa_throw@PLT
.LEHE35:
.L373:
	mov	edi, eax
	jmp	.L368
.L371:
	mov	DWORD PTR -332[ebp], eax
	jmp	.L367
.L372:
	mov	edi, eax
	jmp	.L369
.L375:
	mov	edi, eax
	jmp	.L359
.L374:
	mov	edi, eax
	jmp	.L360
.L376:
	mov	edi, eax
	jmp	.L361
	.section	.gcc_except_table
.LLSDA3164:
	.byte	0xff
	.byte	0xff
	.byte	0x1
	.uleb128 .LLSDACSE3164-.LLSDACSB3164
.LLSDACSB3164:
	.uleb128 .LEHB25-.LFB3164
	.uleb128 .LEHE25-.LEHB25
	.uleb128 .L376-.LFB3164
	.uleb128 0
	.uleb128 .LEHB26-.LFB3164
	.uleb128 .LEHE26-.LEHB26
	.uleb128 .L374-.LFB3164
	.uleb128 0
	.uleb128 .LEHB27-.LFB3164
	.uleb128 .LEHE27-.LEHB27
	.uleb128 .L375-.LFB3164
	.uleb128 0
	.uleb128 .LEHB28-.LFB3164
	.uleb128 .LEHE28-.LEHB28
	.uleb128 .L372-.LFB3164
	.uleb128 0
	.uleb128 .LEHB29-.LFB3164
	.uleb128 .LEHE29-.LEHB29
	.uleb128 .L372-.LFB3164
	.uleb128 0
	.uleb128 .LEHB30-.LFB3164
	.uleb128 .LEHE30-.LEHB30
	.uleb128 .L375-.LFB3164
	.uleb128 0
	.uleb128 .LEHB31-.LFB3164
	.uleb128 .LEHE31-.LEHB31
	.uleb128 .L372-.LFB3164
	.uleb128 0
	.uleb128 .LEHB32-.LFB3164
	.uleb128 .LEHE32-.LEHB32
	.uleb128 .L373-.LFB3164
	.uleb128 0
	.uleb128 .LEHB33-.LFB3164
	.uleb128 .LEHE33-.LEHB33
	.uleb128 .L372-.LFB3164
	.uleb128 0
	.uleb128 .LEHB34-.LFB3164
	.uleb128 .LEHE34-.LEHB34
	.uleb128 .L371-.LFB3164
	.uleb128 0
	.uleb128 .LEHB35-.LFB3164
	.uleb128 .LEHE35-.LEHB35
	.uleb128 0
	.uleb128 0
.LLSDACSE3164:
	.text
	.cfi_endproc
	.section	.text.unlikely
	.cfi_startproc
	.cfi_personality 0x9b,DW.ref.__gxx_personality_v0
	.cfi_lsda 0x1b,.LLSDAC3164
	.type	_Z8readFileNSt7__cxx1112basic_stringIcSt11char_traitsIcESaIcEEE.cold.195, @function
_Z8readFileNSt7__cxx1112basic_stringIcSt11char_traitsIcESaIcEEE.cold.195:
.LFSB3164:
.L368:
	.cfi_def_cfa 5, 8
	.cfi_offset 3, -20
	.cfi_offset 5, -8
	.cfi_offset 6, -16
	.cfi_offset 7, -12
	sub	esp, 12
	push	DWORD PTR -336[ebp]
	mov	ebx, esi
	call	__cxa_free_exception@PLT
	add	esp, 16
.L369:
	sub	esp, 12
	push	DWORD PTR -332[ebp]
	mov	ebx, esi
	call	_ZNSt14basic_ifstreamIcSt11char_traitsIcEED1Ev@PLT
	mov	DWORD PTR [esp], edi
.LEHB36:
	call	_Unwind_Resume@PLT
.L367:
	sub	esp, 12
	mov	ebx, esi
	push	edi
	call	__cxa_free_exception@PLT
	pop	eax
	push	DWORD PTR -332[ebp]
	call	_Unwind_Resume@PLT
.L359:
	sub	esp, 12
	push	DWORD PTR -336[ebp]
	mov	ebx, esi
	call	_ZNSt13basic_filebufIcSt11char_traitsIcEED1Ev@PLT
	add	esp, 16
.L360:
	mov	eax, DWORD PTR -352[ebp]
	mov	edx, DWORD PTR -12[eax]
	mov	DWORD PTR -308[ebp], eax
	mov	eax, DWORD PTR -356[ebp]
	mov	DWORD PTR -308[ebp+edx], eax
	mov	DWORD PTR -304[ebp], 0
.L361:
	sub	esp, 12
	mov	eax, DWORD PTR -360[ebp]
	push	DWORD PTR -344[ebp]
	mov	ebx, esi
	add	eax, 8
	mov	DWORD PTR -164[ebp], eax
	call	_ZNSt8ios_baseD2Ev@PLT
	mov	DWORD PTR [esp], edi
	call	_Unwind_Resume@PLT
.LEHE36:
	.cfi_endproc
.LFE3164:
	.section	.gcc_except_table
.LLSDAC3164:
	.byte	0xff
	.byte	0xff
	.byte	0x1
	.uleb128 .LLSDACSEC3164-.LLSDACSBC3164
.LLSDACSBC3164:
	.uleb128 .LEHB36-.LCOLDB35
	.uleb128 .LEHE36-.LEHB36
	.uleb128 0
	.uleb128 0
.LLSDACSEC3164:
	.section	.text.unlikely
	.text
	.size	_Z8readFileNSt7__cxx1112basic_stringIcSt11char_traitsIcESaIcEEE, .-_Z8readFileNSt7__cxx1112basic_stringIcSt11char_traitsIcESaIcEEE
	.section	.text.unlikely
	.size	_Z8readFileNSt7__cxx1112basic_stringIcSt11char_traitsIcESaIcEEE.cold.195, .-_Z8readFileNSt7__cxx1112basic_stringIcSt11char_traitsIcESaIcEEE.cold.195
.LCOLDE35:
	.text
.LHOTE35:
	.section	.text.unlikely
.LCOLDB36:
	.text
.LHOTB36:
	.p2align 4,,15
	.globl	_Z9doIncludeRi
	.type	_Z9doIncludeRi, @function
_Z9doIncludeRi:
.LFB3148:
	.cfi_startproc
	.cfi_personality 0x9b,DW.ref.__gxx_personality_v0
	.cfi_lsda 0x1b,.LLSDA3148
	push	ebp
	.cfi_def_cfa_offset 8
	.cfi_offset 5, -8
	mov	ebp, esp
	.cfi_def_cfa_register 5
	push	edi
	push	esi
	lea	ecx, -44[ebp]
	.cfi_offset 7, -12
	.cfi_offset 6, -16
	call	__x86.get_pc_thunk.si
	add	esi, OFFSET FLAT:_GLOBAL_OFFSET_TABLE_
	push	ebx
	sub	esp, 124
	.cfi_offset 3, -20
	mov	eax, DWORD PTR 8[ebp]
	mov	DWORD PTR -124[ebp], eax
	mov	ebx, DWORD PTR [eax]
	mov	edi, DWORD PTR gs:20
	mov	DWORD PTR -28[ebp], edi
	xor	edi, edi
	lea	edi, -92[ebp]
	mov	DWORD PTR -108[ebp], ecx
	mov	DWORD PTR -120[ebp], edi
	mov	DWORD PTR -100[ebp], edi
	lea	edi, -4[ebx]
	mov	DWORD PTR [eax], edi
	mov	edx, DWORD PTR _Z10parametersB5cxx11@GOTOFF[esi]
	lea	eax, -52[ebp]
	mov	DWORD PTR -52[ebp], ecx
	mov	ecx, DWORD PTR _Z10parametersB5cxx11@GOTOFF[esi+4]
	mov	DWORD PTR -96[ebp], 0
	add	ecx, edx
	mov	BYTE PTR -92[ebp], 0
	mov	DWORD PTR -132[ebp], eax
.LEHB37:
	call	_ZNSt7__cxx1112basic_stringIcSt11char_traitsIcESaIcEE12_M_constructIPcEEvT_S7_St20forward_iterator_tag.constprop.189
.LEHE37:
	mov	eax, DWORD PTR -52[ebp]
	movzx	ecx, BYTE PTR -4[eax+ebx]
	mov	BYTE PTR -112[ebp], cl
	cmp	cl, 32
	jne	.L394
	.p2align 4,,10
	.p2align 3
.L391:
	add	edi, 1
	movzx	edx, BYTE PTR [eax+edi]
	cmp	dl, 32
	je	.L391
	mov	BYTE PTR -112[ebp], dl
.L394:
	mov	edx, DWORD PTR -48[ebp]
	cmp	edx, edi
	jbe	.L400
	lea	ecx, -100[ebp]
	cmp	BYTE PTR -112[ebp], 10
	mov	DWORD PTR -136[ebp], ecx
	jne	.L395
	jmp	.L396
	.p2align 4,,10
	.p2align 3
.L398:
	mov	edx, DWORD PTR -116[ebp]
	movzx	ecx, BYTE PTR -112[ebp]
	add	edi, 1
	mov	BYTE PTR [eax+edx], cl
	mov	eax, DWORD PTR -128[ebp]
	mov	DWORD PTR -96[ebp], eax
	mov	eax, DWORD PTR -100[ebp]
	mov	BYTE PTR 1[eax+edx], 0
	mov	edx, DWORD PTR -48[ebp]
	mov	eax, DWORD PTR -52[ebp]
	cmp	edx, edi
	jbe	.L400
	movzx	ebx, BYTE PTR [eax+edi]
	mov	BYTE PTR -112[ebp], bl
	cmp	bl, 10
	je	.L396
.L395:
	mov	eax, DWORD PTR -96[ebp]
	mov	edx, 15
	lea	ebx, 1[eax]
	mov	DWORD PTR -116[ebp], eax
	mov	eax, DWORD PTR -100[ebp]
	cmp	eax, DWORD PTR -120[ebp]
	cmovne	edx, DWORD PTR -92[ebp]
	mov	DWORD PTR -128[ebp], ebx
	cmp	ebx, edx
	jbe	.L398
	sub	esp, 12
	mov	ebx, esi
	push	1
	push	0
	push	0
	push	DWORD PTR -116[ebp]
	push	DWORD PTR -136[ebp]
.LEHB38:
	.cfi_escape 0x2e,0x20
	call	_ZNSt7__cxx1112basic_stringIcSt11char_traitsIcESaIcEE9_M_mutateEjjPKcj@PLT
.LEHE38:
	add	esp, 32
	mov	eax, DWORD PTR -100[ebp]
	jmp	.L398
	.p2align 4,,10
	.p2align 3
.L396:
	lea	edx, 1[edi]
.L400:
	mov	edi, DWORD PTR -124[ebp]
	mov	DWORD PTR [edi], edx
	cmp	eax, DWORD PTR -108[ebp]
	je	.L401
	sub	esp, 12
	mov	ebx, esi
	push	eax
	call	_ZdlPv@PLT
	add	esp, 16
.L401:
	lea	edi, _Z10parametersB5cxx11@GOTOFF[esi]
	push	DWORD PTR -96[ebp]
	mov	eax, DWORD PTR -108[ebp]
	mov	ebx, esi
	push	0
	push	DWORD PTR -100[ebp]
	push	edi
	mov	DWORD PTR -52[ebp], eax
	mov	DWORD PTR -48[ebp], 0
	mov	BYTE PTR -44[ebp], 0
	call	_ZNKSt7__cxx1112basic_stringIcSt11char_traitsIcESaIcEE4findEPKcjj@PLT
	add	esp, 16
	cmp	eax, -1
	je	.L402
	mov	ecx, DWORD PTR -48[ebp]
	mov	ebx, DWORD PTR -52[ebp]
	mov	DWORD PTR -112[ebp], ecx
	mov	ecx, DWORD PTR _Z10parametersB5cxx11@GOTOFF[esi+4]
	mov	edx, ecx
	sub	edx, eax
	cmp	DWORD PTR -96[ebp], edx
	cmovbe	edx, DWORD PTR -96[ebp]
	cmp	eax, ecx
	ja	.L459
	sub	esp, 12
	push	DWORD PTR -112[ebp]
	push	ebx
	mov	ebx, esi
	push	edx
	push	eax
	push	edi
.LEHB39:
	call	_ZNSt7__cxx1112basic_stringIcSt11char_traitsIcESaIcEE10_M_replaceEjjPKcj@PLT
.LEHE39:
	add	esp, 32
.L402:
	mov	eax, DWORD PTR -52[ebp]
	cmp	eax, DWORD PTR -108[ebp]
	je	.L404
	sub	esp, 12
	mov	ebx, esi
	push	eax
	call	_ZdlPv@PLT
	add	esp, 16
.L404:
	mov	eax, DWORD PTR -108[ebp]
	lea	edi, -68[ebp]
	push	4
	mov	ebx, esi
	push	0
	mov	DWORD PTR -52[ebp], eax
	lea	eax, -100[ebp]
	push	edi
	push	eax
	mov	DWORD PTR -48[ebp], 0
	mov	BYTE PTR -44[ebp], 0
	mov	DWORD PTR -76[ebp], edi
	mov	DWORD PTR -68[ebp], 543519605
	mov	DWORD PTR -72[ebp], 4
	mov	BYTE PTR -64[ebp], 0
	mov	DWORD PTR -112[ebp], eax
	call	_ZNKSt7__cxx1112basic_stringIcSt11char_traitsIcESaIcEE4findEPKcjj@PLT
	add	esp, 16
	cmp	eax, -1
	je	.L405
	mov	ecx, DWORD PTR -52[ebp]
	mov	ebx, DWORD PTR -48[ebp]
	mov	DWORD PTR -116[ebp], ecx
	mov	ecx, DWORD PTR -96[ebp]
	mov	edx, ecx
	sub	edx, eax
	cmp	DWORD PTR -72[ebp], edx
	cmovbe	edx, DWORD PTR -72[ebp]
	cmp	eax, ecx
	ja	.L460
	sub	esp, 12
	push	ebx
	mov	ebx, esi
	push	DWORD PTR -116[ebp]
	push	edx
	push	eax
	push	DWORD PTR -112[ebp]
.LEHB40:
	call	_ZNSt7__cxx1112basic_stringIcSt11char_traitsIcESaIcEE10_M_replaceEjjPKcj@PLT
.LEHE40:
	add	esp, 32
.L405:
	mov	eax, DWORD PTR -76[ebp]
	cmp	eax, edi
	je	.L407
	sub	esp, 12
	mov	ebx, esi
	push	eax
	call	_ZdlPv@PLT
	add	esp, 16
.L407:
	mov	eax, DWORD PTR -52[ebp]
	cmp	eax, DWORD PTR -108[ebp]
	je	.L408
	sub	esp, 12
	mov	ebx, esi
	push	eax
	call	_ZdlPv@PLT
	add	esp, 16
.L408:
	mov	edx, DWORD PTR -100[ebp]
	mov	ecx, DWORD PTR -96[ebp]
	lea	ebx, -76[ebp]
	mov	DWORD PTR -76[ebp], edi
	mov	eax, ebx
	add	ecx, edx
.LEHB41:
	.cfi_escape 0x2e,0
	call	_ZNSt7__cxx1112basic_stringIcSt11char_traitsIcESaIcEE12_M_constructIPcEEvT_S7_St20forward_iterator_tag.constprop.189
.LEHE41:
	sub	esp, 8
	push	ebx
	push	DWORD PTR -132[ebp]
.LEHB42:
	.cfi_escape 0x2e,0x10
	call	_Z8readFileNSt7__cxx1112basic_stringIcSt11char_traitsIcESaIcEEE
.LEHE42:
	add	esp, 12
	mov	eax, DWORD PTR _Z9includes2B5cxx11@GOTOFF[esi]
	mov	ecx, DWORD PTR -52[ebp]
	mov	edx, DWORD PTR -48[ebp]
	cmp	ecx, DWORD PTR -108[ebp]
	je	.L461
	mov	ebx, DWORD PTR -44[ebp]
	mov	DWORD PTR -112[ebp], ebx
	lea	ebx, _Z9includes2B5cxx11@GOTOFF[esi+8]
	cmp	eax, ebx
	je	.L462
	mov	DWORD PTR _Z9includes2B5cxx11@GOTOFF[esi+4], edx
	mov	edx, DWORD PTR -112[ebp]
	mov	ebx, DWORD PTR _Z9includes2B5cxx11@GOTOFF[esi+8]
	mov	DWORD PTR _Z9includes2B5cxx11@GOTOFF[esi], ecx
	mov	DWORD PTR _Z9includes2B5cxx11@GOTOFF[esi+8], edx
	test	eax, eax
	je	.L414
	mov	DWORD PTR -52[ebp], eax
	mov	DWORD PTR -44[ebp], ebx
.L412:
	mov	DWORD PTR -48[ebp], 0
	mov	BYTE PTR [eax], 0
	mov	eax, DWORD PTR -52[ebp]
	cmp	eax, DWORD PTR -108[ebp]
	je	.L415
	sub	esp, 12
	mov	ebx, esi
	push	eax
	call	_ZdlPv@PLT
	add	esp, 16
.L415:
	mov	eax, DWORD PTR -76[ebp]
	cmp	eax, edi
	je	.L416
	sub	esp, 12
	mov	ebx, esi
	push	eax
	call	_ZdlPv@PLT
	add	esp, 16
.L416:
	mov	eax, DWORD PTR -124[ebp]
	mov	DWORD PTR [eax], 0
	mov	eax, DWORD PTR -100[ebp]
	cmp	eax, DWORD PTR -120[ebp]
	je	.L390
	sub	esp, 12
	mov	ebx, esi
	push	eax
	call	_ZdlPv@PLT
	add	esp, 16
.L390:
	mov	eax, DWORD PTR -28[ebp]
	xor	eax, DWORD PTR gs:20
	jne	.L463
	lea	esp, -12[ebp]
	pop	ebx
	.cfi_remember_state
	.cfi_restore 3
	pop	esi
	.cfi_restore 6
	pop	edi
	.cfi_restore 7
	pop	ebp
	.cfi_restore 5
	.cfi_def_cfa 4, 4
	ret
	.p2align 4,,10
	.p2align 3
.L462:
	.cfi_restore_state
	mov	eax, DWORD PTR -112[ebp]
	mov	DWORD PTR _Z9includes2B5cxx11@GOTOFF[esi], ecx
	mov	DWORD PTR _Z9includes2B5cxx11@GOTOFF[esi+4], edx
	mov	DWORD PTR _Z9includes2B5cxx11@GOTOFF[esi+8], eax
.L414:
	mov	eax, DWORD PTR -108[ebp]
	mov	DWORD PTR -52[ebp], eax
	lea	eax, -44[ebp]
	mov	DWORD PTR -108[ebp], eax
	jmp	.L412
	.p2align 4,,10
	.p2align 3
.L461:
	test	edx, edx
	je	.L410
	cmp	edx, 1
	je	.L464
	sub	esp, 4
	mov	ebx, esi
	push	edx
	push	DWORD PTR -108[ebp]
	push	eax
	call	memcpy@PLT
	mov	edx, DWORD PTR -48[ebp]
	mov	eax, DWORD PTR _Z9includes2B5cxx11@GOTOFF[esi]
	add	esp, 16
.L410:
	mov	DWORD PTR _Z9includes2B5cxx11@GOTOFF[esi+4], edx
	mov	BYTE PTR [eax+edx], 0
	mov	eax, DWORD PTR -52[ebp]
	jmp	.L412
	.p2align 4,,10
	.p2align 3
.L464:
	movzx	edx, BYTE PTR -44[ebp]
	mov	BYTE PTR [eax], dl
	mov	edx, DWORD PTR -48[ebp]
	mov	eax, DWORD PTR _Z9includes2B5cxx11@GOTOFF[esi]
	jmp	.L410
.L463:
	call	__stack_chk_fail_local
.L459:
	push	ecx
	mov	ebx, esi
	push	eax
	lea	eax, .LC31@GOTOFF[esi]
	push	eax
	lea	eax, .LC32@GOTOFF[esi]
	push	eax
.LEHB43:
	call	_ZSt24__throw_out_of_range_fmtPKcz@PLT
.LEHE43:
.L460:
	push	ecx
	mov	ebx, esi
	push	eax
	lea	eax, .LC31@GOTOFF[esi]
	push	eax
	lea	eax, .LC32@GOTOFF[esi]
	push	eax
.LEHB44:
	call	_ZSt24__throw_out_of_range_fmtPKcz@PLT
.LEHE44:
.L433:
	mov	DWORD PTR -112[ebp], eax
	jmp	.L421
.L431:
	mov	DWORD PTR -108[ebp], eax
	jmp	.L420
.L435:
	mov	DWORD PTR -108[ebp], eax
	jmp	.L426
.L432:
	mov	DWORD PTR -112[ebp], eax
	jmp	.L418
.L434:
	mov	DWORD PTR -112[ebp], eax
	jmp	.L423
	.section	.gcc_except_table
.LLSDA3148:
	.byte	0xff
	.byte	0xff
	.byte	0x1
	.uleb128 .LLSDACSE3148-.LLSDACSB3148
.LLSDACSB3148:
	.uleb128 .LEHB37-.LFB3148
	.uleb128 .LEHE37-.LEHB37
	.uleb128 .L431-.LFB3148
	.uleb128 0
	.uleb128 .LEHB38-.LFB3148
	.uleb128 .LEHE38-.LEHB38
	.uleb128 .L432-.LFB3148
	.uleb128 0
	.uleb128 .LEHB39-.LFB3148
	.uleb128 .LEHE39-.LEHB39
	.uleb128 .L433-.LFB3148
	.uleb128 0
	.uleb128 .LEHB40-.LFB3148
	.uleb128 .LEHE40-.LEHB40
	.uleb128 .L434-.LFB3148
	.uleb128 0
	.uleb128 .LEHB41-.LFB3148
	.uleb128 .LEHE41-.LEHB41
	.uleb128 .L431-.LFB3148
	.uleb128 0
	.uleb128 .LEHB42-.LFB3148
	.uleb128 .LEHE42-.LEHB42
	.uleb128 .L435-.LFB3148
	.uleb128 0
	.uleb128 .LEHB43-.LFB3148
	.uleb128 .LEHE43-.LEHB43
	.uleb128 .L433-.LFB3148
	.uleb128 0
	.uleb128 .LEHB44-.LFB3148
	.uleb128 .LEHE44-.LEHB44
	.uleb128 .L434-.LFB3148
	.uleb128 0
.LLSDACSE3148:
	.text
	.cfi_endproc
	.section	.text.unlikely
	.cfi_startproc
	.cfi_personality 0x9b,DW.ref.__gxx_personality_v0
	.cfi_lsda 0x1b,.LLSDAC3148
	.type	_Z9doIncludeRi.cold.196, @function
_Z9doIncludeRi.cold.196:
.LFSB3148:
.L421:
	.cfi_def_cfa 5, 8
	.cfi_offset 3, -20
	.cfi_offset 5, -8
	.cfi_offset 6, -16
	.cfi_offset 7, -12
	mov	eax, DWORD PTR -52[ebp]
	cmp	eax, DWORD PTR -108[ebp]
	je	.L422
	sub	esp, 12
	mov	ebx, esi
	push	eax
	call	_ZdlPv@PLT
	add	esp, 16
.L422:
	mov	eax, DWORD PTR -112[ebp]
	mov	DWORD PTR -108[ebp], eax
.L420:
	mov	eax, DWORD PTR -100[ebp]
	cmp	eax, DWORD PTR -120[ebp]
	je	.L428
	sub	esp, 12
	mov	ebx, esi
	push	eax
	call	_ZdlPv@PLT
	add	esp, 16
.L428:
	sub	esp, 12
	push	DWORD PTR -108[ebp]
	mov	ebx, esi
.LEHB45:
	call	_Unwind_Resume@PLT
.LEHE45:
.L418:
	mov	eax, DWORD PTR -52[ebp]
	cmp	eax, DWORD PTR -108[ebp]
	je	.L419
	sub	esp, 12
	mov	ebx, esi
	push	eax
	call	_ZdlPv@PLT
	add	esp, 16
.L419:
	mov	eax, DWORD PTR -112[ebp]
	mov	DWORD PTR -108[ebp], eax
	jmp	.L420
.L426:
	mov	eax, DWORD PTR -76[ebp]
	cmp	eax, edi
	je	.L420
	sub	esp, 12
	mov	ebx, esi
	push	eax
	call	_ZdlPv@PLT
	add	esp, 16
	jmp	.L420
.L423:
	mov	eax, DWORD PTR -76[ebp]
	cmp	eax, edi
	je	.L424
	sub	esp, 12
	mov	ebx, esi
	push	eax
	call	_ZdlPv@PLT
	add	esp, 16
.L424:
	mov	eax, DWORD PTR -52[ebp]
	cmp	eax, DWORD PTR -108[ebp]
	je	.L425
	sub	esp, 12
	mov	ebx, esi
	push	eax
	call	_ZdlPv@PLT
	add	esp, 16
.L425:
	mov	eax, DWORD PTR -112[ebp]
	mov	DWORD PTR -108[ebp], eax
	jmp	.L420
	.cfi_endproc
.LFE3148:
	.section	.gcc_except_table
.LLSDAC3148:
	.byte	0xff
	.byte	0xff
	.byte	0x1
	.uleb128 .LLSDACSEC3148-.LLSDACSBC3148
.LLSDACSBC3148:
	.uleb128 .LEHB45-.LCOLDB36
	.uleb128 .LEHE45-.LEHB45
	.uleb128 0
	.uleb128 0
.LLSDACSEC3148:
	.section	.text.unlikely
	.text
	.size	_Z9doIncludeRi, .-_Z9doIncludeRi
	.section	.text.unlikely
	.size	_Z9doIncludeRi.cold.196, .-_Z9doIncludeRi.cold.196
.LCOLDE36:
	.text
.LHOTE36:
	.p2align 4,,15
	.globl	_Z7getWordcRNSt7__cxx1112basic_stringIcSt11char_traitsIcESaIcEEES4_i
	.type	_Z7getWordcRNSt7__cxx1112basic_stringIcSt11char_traitsIcESaIcEEES4_i, @function
_Z7getWordcRNSt7__cxx1112basic_stringIcSt11char_traitsIcESaIcEEES4_i:
.LFB3165:
	.cfi_startproc
	call	__x86.get_pc_thunk.ax
	add	eax, OFFSET FLAT:_GLOBAL_OFFSET_TABLE_
	push	ebp
	.cfi_def_cfa_offset 8
	.cfi_offset 5, -8
	push	edi
	.cfi_def_cfa_offset 12
	.cfi_offset 7, -12
	push	esi
	.cfi_def_cfa_offset 16
	.cfi_offset 6, -16
	push	ebx
	.cfi_def_cfa_offset 20
	.cfi_offset 3, -20
	sub	esp, 28
	.cfi_def_cfa_offset 48
	mov	ecx, DWORD PTR 48[esp]
	mov	esi, DWORD PTR 60[esp]
	mov	DWORD PTR 12[esp], eax
	mov	eax, DWORD PTR 56[esp]
	mov	edi, DWORD PTR 52[esp]
	mov	BYTE PTR 10[esp], cl
	mov	eax, DWORD PTR [eax]
	movzx	edx, BYTE PTR [eax+esi]
	cmp	dl, 32
	jne	.L469
	.p2align 4,,10
	.p2align 3
.L466:
	add	esi, 1
	movzx	edx, BYTE PTR [eax+esi]
	cmp	dl, 32
	je	.L466
.L469:
	mov	eax, DWORD PTR 56[esp]
	mov	eax, DWORD PTR 4[eax]
	cmp	eax, esi
	jbe	.L465
	cmp	dl, cl
	je	.L470
	cmp	dl, 10
	je	.L470
	lea	eax, 8[edi]
	mov	DWORD PTR [esp], eax
	jmp	.L471
	.p2align 4,,10
	.p2align 3
.L473:
	mov	BYTE PTR [eax+ebp], dl
	mov	eax, DWORD PTR [edi]
	add	esi, 1
	mov	DWORD PTR 4[edi], ecx
	mov	BYTE PTR 1[eax+ebp], 0
	mov	eax, DWORD PTR 56[esp]
	mov	eax, DWORD PTR 4[eax]
	cmp	eax, esi
	jbe	.L465
	mov	eax, DWORD PTR 56[esp]
	mov	eax, DWORD PTR [eax]
	movzx	edx, BYTE PTR [eax+esi]
	cmp	BYTE PTR 10[esp], dl
	je	.L470
	cmp	dl, 10
	je	.L470
.L471:
	mov	ebp, DWORD PTR 4[edi]
	mov	eax, DWORD PTR [edi]
	lea	ecx, 1[ebp]
	cmp	eax, DWORD PTR [esp]
	je	.L476
	mov	ebx, DWORD PTR 8[edi]
.L472:
	cmp	ecx, ebx
	jbe	.L473
	mov	BYTE PTR 11[esp], dl
	sub	esp, 12
	.cfi_def_cfa_offset 60
	mov	DWORD PTR 16[esp], ecx
	push	1
	.cfi_def_cfa_offset 64
	push	0
	.cfi_def_cfa_offset 68
	push	0
	.cfi_def_cfa_offset 72
	push	ebp
	.cfi_def_cfa_offset 76
	push	edi
	.cfi_def_cfa_offset 80
	mov	ebx, DWORD PTR 44[esp]
	call	_ZNSt7__cxx1112basic_stringIcSt11char_traitsIcESaIcEE9_M_mutateEjjPKcj@PLT
	add	esp, 32
	.cfi_def_cfa_offset 48
	mov	eax, DWORD PTR [edi]
	movzx	edx, BYTE PTR 11[esp]
	mov	ecx, DWORD PTR 4[esp]
	jmp	.L473
	.p2align 4,,10
	.p2align 3
.L476:
	mov	ebx, 15
	jmp	.L472
	.p2align 4,,10
	.p2align 3
.L470:
	lea	eax, 1[esi]
.L465:
	add	esp, 28
	.cfi_def_cfa_offset 20
	pop	ebx
	.cfi_restore 3
	.cfi_def_cfa_offset 16
	pop	esi
	.cfi_restore 6
	.cfi_def_cfa_offset 12
	pop	edi
	.cfi_restore 7
	.cfi_def_cfa_offset 8
	pop	ebp
	.cfi_restore 5
	.cfi_def_cfa_offset 4
	ret
	.cfi_endproc
.LFE3165:
	.size	_Z7getWordcRNSt7__cxx1112basic_stringIcSt11char_traitsIcESaIcEEES4_i, .-_Z7getWordcRNSt7__cxx1112basic_stringIcSt11char_traitsIcESaIcEEES4_i
	.p2align 4,,15
	.globl	_Z8getErrorcRNSt7__cxx1112basic_stringIcSt11char_traitsIcESaIcEEES4_iS5_
	.type	_Z8getErrorcRNSt7__cxx1112basic_stringIcSt11char_traitsIcESaIcEEES4_iS5_, @function
_Z8getErrorcRNSt7__cxx1112basic_stringIcSt11char_traitsIcESaIcEEES4_iS5_:
.LFB3166:
	.cfi_startproc
	call	__x86.get_pc_thunk.ax
	add	eax, OFFSET FLAT:_GLOBAL_OFFSET_TABLE_
	push	ebp
	.cfi_def_cfa_offset 8
	.cfi_offset 5, -8
	push	edi
	.cfi_def_cfa_offset 12
	.cfi_offset 7, -12
	push	esi
	.cfi_def_cfa_offset 16
	.cfi_offset 6, -16
	push	ebx
	.cfi_def_cfa_offset 20
	.cfi_offset 3, -20
	sub	esp, 28
	.cfi_def_cfa_offset 48
	mov	ecx, DWORD PTR 56[esp]
	mov	edx, DWORD PTR 48[esp]
	mov	DWORD PTR 12[esp], eax
	mov	edi, DWORD PTR 60[esp]
	mov	esi, DWORD PTR 52[esp]
	mov	eax, DWORD PTR 4[ecx]
	mov	BYTE PTR 11[esp], dl
	cmp	eax, edi
	jbe	.L498
	mov	eax, DWORD PTR [ecx]
	movzx	eax, BYTE PTR [eax+edi]
	cmp	dl, al
	je	.L500
	cmp	al, 10
	je	.L509
	lea	edx, 8[esi]
	mov	DWORD PTR 4[esp], edx
	jmp	.L502
	.p2align 4,,10
	.p2align 3
.L505:
	mov	BYTE PTR [edx+ebp], al
	lea	eax, 1[ebp]
	add	edi, 1
	mov	DWORD PTR 4[esi], eax
	mov	eax, DWORD PTR [esi]
	mov	BYTE PTR 1[eax+ebp], 0
	mov	eax, DWORD PTR 4[ecx]
	cmp	eax, edi
	jbe	.L498
	mov	eax, DWORD PTR [ecx]
	movsx	eax, BYTE PTR [eax+edi]
	cmp	al, BYTE PTR 11[esp]
	je	.L501
	cmp	al, 10
	je	.L509
.L502:
	mov	ebp, DWORD PTR 4[esi]
	lea	edx, 1[ebp]
	mov	DWORD PTR [esp], edx
	mov	edx, DWORD PTR [esi]
	cmp	edx, DWORD PTR 4[esp]
	je	.L510
	mov	ebx, DWORD PTR 8[esi]
.L504:
	cmp	DWORD PTR [esp], ebx
	jbe	.L505
	mov	DWORD PTR 56[esp], ecx
	sub	esp, 12
	.cfi_def_cfa_offset 60
	mov	BYTE PTR 12[esp], al
	push	1
	.cfi_def_cfa_offset 64
	push	0
	.cfi_def_cfa_offset 68
	push	0
	.cfi_def_cfa_offset 72
	push	ebp
	.cfi_def_cfa_offset 76
	push	esi
	.cfi_def_cfa_offset 80
	mov	ebx, DWORD PTR 44[esp]
	call	_ZNSt7__cxx1112basic_stringIcSt11char_traitsIcESaIcEE9_M_mutateEjjPKcj@PLT
	add	esp, 32
	.cfi_def_cfa_offset 48
	mov	edx, DWORD PTR [esi]
	mov	ecx, DWORD PTR 56[esp]
	movzx	eax, BYTE PTR [esp]
	jmp	.L505
	.p2align 4,,10
	.p2align 3
.L510:
	mov	ebx, 15
	jmp	.L504
.L500:
	movsx	eax, dl
	.p2align 4,,10
	.p2align 3
.L501:
	sub	esp, 12
	.cfi_def_cfa_offset 60
	push	eax
	.cfi_def_cfa_offset 64
	push	1
	.cfi_def_cfa_offset 68
	mov	eax, DWORD PTR 84[esp]
	push	DWORD PTR 4[eax]
	.cfi_def_cfa_offset 72
	push	0
	.cfi_def_cfa_offset 76
	push	DWORD PTR 92[esp]
	.cfi_def_cfa_offset 80
	mov	ebx, DWORD PTR 44[esp]
	call	_ZNSt7__cxx1112basic_stringIcSt11char_traitsIcESaIcEE14_M_replace_auxEjjjc@PLT
	lea	eax, 1[edi]
	add	esp, 32
	.cfi_def_cfa_offset 48
.L498:
	add	esp, 28
	.cfi_remember_state
	.cfi_def_cfa_offset 20
	pop	ebx
	.cfi_restore 3
	.cfi_def_cfa_offset 16
	pop	esi
	.cfi_restore 6
	.cfi_def_cfa_offset 12
	pop	edi
	.cfi_restore 7
	.cfi_def_cfa_offset 8
	pop	ebp
	.cfi_restore 5
	.cfi_def_cfa_offset 4
	ret
	.p2align 4,,10
	.p2align 3
.L509:
	.cfi_restore_state
	mov	eax, 10
	jmp	.L501
	.cfi_endproc
.LFE3166:
	.size	_Z8getErrorcRNSt7__cxx1112basic_stringIcSt11char_traitsIcESaIcEEES4_iS5_, .-_Z8getErrorcRNSt7__cxx1112basic_stringIcSt11char_traitsIcESaIcEEES4_iS5_
	.p2align 4,,15
	.globl	_Z16getReversedIndexcNSt7__cxx1112basic_stringIcSt11char_traitsIcESaIcEEEi
	.type	_Z16getReversedIndexcNSt7__cxx1112basic_stringIcSt11char_traitsIcESaIcEEEi, @function
_Z16getReversedIndexcNSt7__cxx1112basic_stringIcSt11char_traitsIcESaIcEEEi:
.LFB3167:
	.cfi_startproc
	push	ebp
	.cfi_def_cfa_offset 8
	.cfi_offset 5, -8
	push	edi
	.cfi_def_cfa_offset 12
	.cfi_offset 7, -12
	push	esi
	.cfi_def_cfa_offset 16
	.cfi_offset 6, -16
	push	ebx
	.cfi_def_cfa_offset 20
	.cfi_offset 3, -20
	mov	eax, DWORD PTR 28[esp]
	mov	edi, DWORD PTR 20[esp]
	test	eax, eax
	jle	.L517
	mov	ecx, DWORD PTR 24[esp]
	mov	ebp, edi
	mov	ecx, DWORD PTR [ecx]
	movzx	esi, BYTE PTR [ecx+eax]
	mov	edx, esi
	cmp	dl, 10
	je	.L520
	mov	ebx, edi
	cmp	dl, bl
	jne	.L513
	.p2align 4,,10
	.p2align 3
.L520:
	sub	eax, 1
	je	.L513
	movzx	edx, BYTE PTR [ecx+eax]
	mov	ebx, ebp
	cmp	dl, bl
	je	.L520
	cmp	dl, 10
	je	.L520
.L513:
	pop	ebx
	.cfi_remember_state
	.cfi_restore 3
	.cfi_def_cfa_offset 16
	pop	esi
	.cfi_restore 6
	.cfi_def_cfa_offset 12
	pop	edi
	.cfi_restore 7
	.cfi_def_cfa_offset 8
	pop	ebp
	.cfi_restore 5
	.cfi_def_cfa_offset 4
	ret
.L517:
	.cfi_restore_state
	xor	eax, eax
	jmp	.L513
	.cfi_endproc
.LFE3167:
	.size	_Z16getReversedIndexcNSt7__cxx1112basic_stringIcSt11char_traitsIcESaIcEEEi, .-_Z16getReversedIndexcNSt7__cxx1112basic_stringIcSt11char_traitsIcESaIcEEEi
	.p2align 4,,15
	.globl	_Z15getReversedWordcRNSt7__cxx1112basic_stringIcSt11char_traitsIcESaIcEEES4_i
	.type	_Z15getReversedWordcRNSt7__cxx1112basic_stringIcSt11char_traitsIcESaIcEEES4_i, @function
_Z15getReversedWordcRNSt7__cxx1112basic_stringIcSt11char_traitsIcESaIcEEES4_i:
.LFB3168:
	.cfi_startproc
	call	__x86.get_pc_thunk.ax
	add	eax, OFFSET FLAT:_GLOBAL_OFFSET_TABLE_
	push	ebp
	.cfi_def_cfa_offset 8
	.cfi_offset 5, -8
	push	edi
	.cfi_def_cfa_offset 12
	.cfi_offset 7, -12
	push	esi
	.cfi_def_cfa_offset 16
	.cfi_offset 6, -16
	push	ebx
	.cfi_def_cfa_offset 20
	.cfi_offset 3, -20
	sub	esp, 28
	.cfi_def_cfa_offset 48
	mov	edi, DWORD PTR 60[esp]
	mov	esi, DWORD PTR 52[esp]
	mov	DWORD PTR 12[esp], eax
	mov	eax, DWORD PTR 48[esp]
	mov	BYTE PTR 10[esp], al
	test	edi, edi
	jle	.L529
	mov	ecx, DWORD PTR 56[esp]
	mov	edx, DWORD PTR [ecx]
	movzx	edx, BYTE PTR [edx+edi]
	cmp	dl, 10
	je	.L523
	cmp	dl, al
	je	.L523
	lea	eax, 8[esi]
	mov	DWORD PTR [esp], eax
	jmp	.L526
	.p2align 4,,10
	.p2align 3
.L528:
	mov	BYTE PTR [eax+ebp], dl
	mov	eax, DWORD PTR [esi]
	mov	DWORD PTR 4[esi], ecx
	mov	BYTE PTR 1[eax+ebp], 0
	sub	edi, 1
	je	.L529
	mov	eax, DWORD PTR 56[esp]
	mov	eax, DWORD PTR [eax]
	movzx	edx, BYTE PTR [eax+edi]
	cmp	dl, 10
	je	.L523
	cmp	dl, BYTE PTR 10[esp]
	je	.L523
.L526:
	mov	ebp, DWORD PTR 4[esi]
	mov	eax, DWORD PTR [esi]
	lea	ecx, 1[ebp]
	cmp	eax, DWORD PTR [esp]
	je	.L532
	mov	ebx, DWORD PTR 8[esi]
.L527:
	cmp	ecx, ebx
	jbe	.L528
	mov	BYTE PTR 11[esp], dl
	sub	esp, 12
	.cfi_def_cfa_offset 60
	mov	DWORD PTR 16[esp], ecx
	push	1
	.cfi_def_cfa_offset 64
	push	0
	.cfi_def_cfa_offset 68
	push	0
	.cfi_def_cfa_offset 72
	push	ebp
	.cfi_def_cfa_offset 76
	push	esi
	.cfi_def_cfa_offset 80
	mov	ebx, DWORD PTR 44[esp]
	call	_ZNSt7__cxx1112basic_stringIcSt11char_traitsIcESaIcEE9_M_mutateEjjPKcj@PLT
	add	esp, 32
	.cfi_def_cfa_offset 48
	mov	eax, DWORD PTR [esi]
	movzx	edx, BYTE PTR 11[esp]
	mov	ecx, DWORD PTR 4[esp]
	jmp	.L528
	.p2align 4,,10
	.p2align 3
.L532:
	mov	ebx, 15
	jmp	.L527
	.p2align 4,,10
	.p2align 3
.L529:
	xor	edi, edi
.L523:
	add	esp, 28
	.cfi_def_cfa_offset 20
	mov	eax, edi
	pop	ebx
	.cfi_restore 3
	.cfi_def_cfa_offset 16
	pop	esi
	.cfi_restore 6
	.cfi_def_cfa_offset 12
	pop	edi
	.cfi_restore 7
	.cfi_def_cfa_offset 8
	pop	ebp
	.cfi_restore 5
	.cfi_def_cfa_offset 4
	ret
	.cfi_endproc
.LFE3168:
	.size	_Z15getReversedWordcRNSt7__cxx1112basic_stringIcSt11char_traitsIcESaIcEEES4_i, .-_Z15getReversedWordcRNSt7__cxx1112basic_stringIcSt11char_traitsIcESaIcEEES4_i
	.section	.text.unlikely
.LCOLDB37:
	.text
.LHOTB37:
	.p2align 4,,15
	.globl	_Z9writeFileNSt7__cxx1112basic_stringIcSt11char_traitsIcESaIcEEES4_
	.type	_Z9writeFileNSt7__cxx1112basic_stringIcSt11char_traitsIcESaIcEEES4_, @function
_Z9writeFileNSt7__cxx1112basic_stringIcSt11char_traitsIcESaIcEEES4_:
.LFB3169:
	.cfi_startproc
	.cfi_personality 0x9b,DW.ref.__gxx_personality_v0
	.cfi_lsda 0x1b,.LLSDA3169
	push	ebp
	.cfi_def_cfa_offset 8
	.cfi_offset 5, -8
	mov	ebp, esp
	.cfi_def_cfa_register 5
	push	edi
	push	esi
	.cfi_offset 7, -12
	.cfi_offset 6, -16
	call	__x86.get_pc_thunk.si
	add	esi, OFFSET FLAT:_GLOBAL_OFFSET_TABLE_
	push	ebx
	sub	esp, 344
	.cfi_offset 3, -20
	mov	eax, DWORD PTR 8[ebp]
	mov	edi, DWORD PTR 12[ebp]
	mov	DWORD PTR -336[ebp], eax
	lea	eax, -164[ebp]
	mov	DWORD PTR -344[ebp], edi
	mov	ebx, esi
	mov	edi, DWORD PTR gs:20
	mov	DWORD PTR -28[ebp], edi
	xor	edi, edi
	push	eax
	lea	edi, -304[ebp]
	mov	DWORD PTR -316[ebp], eax
	call	_ZNSt8ios_baseC2Ev@PLT
	mov	ebx, DWORD PTR _ZTVSt9basic_iosIcSt11char_traitsIcEE@GOT[esi]
	mov	edx, DWORD PTR _ZTTSt14basic_ofstreamIcSt11char_traitsIcEE@GOT[esi]
	mov	DWORD PTR -52[ebp], 0
	mov	DWORD PTR -44[ebp], 0
	mov	ecx, DWORD PTR 4[edx]
	lea	eax, 8[ebx]
	mov	DWORD PTR -40[ebp], 0
	mov	DWORD PTR -164[ebp], eax
	xor	eax, eax
	mov	WORD PTR -48[ebp], ax
	mov	eax, DWORD PTR -12[ecx]
	mov	DWORD PTR -304[ebp], ecx
	mov	DWORD PTR -324[ebp], ecx
	mov	ecx, DWORD PTR 8[edx]
	add	eax, edi
	mov	DWORD PTR -36[ebp], 0
	mov	DWORD PTR -32[ebp], 0
	mov	DWORD PTR -328[ebp], ecx
	mov	DWORD PTR [eax], ecx
	pop	edx
	pop	ecx
	push	0
	push	eax
	mov	DWORD PTR -332[ebp], ebx
	mov	ebx, esi
	mov	DWORD PTR -320[ebp], edi
.LEHB46:
	.cfi_escape 0x2e,0x10
	call	_ZNSt9basic_iosIcSt11char_traitsIcEE4initEPSt15basic_streambufIcS1_E@PLT
.LEHE46:
	mov	edx, DWORD PTR _ZTVSt14basic_ofstreamIcSt11char_traitsIcEE@GOT[esi]
	lea	edi, -300[ebp]
	mov	DWORD PTR [esp], edi
	lea	eax, 12[edx]
	mov	DWORD PTR -340[ebp], edx
	mov	DWORD PTR -304[ebp], eax
	lea	eax, 32[edx]
	mov	DWORD PTR -164[ebp], eax
.LEHB47:
	call	_ZNSt13basic_filebufIcSt11char_traitsIcEEC1Ev@PLT
.LEHE47:
	pop	ecx
	pop	eax
	push	edi
	push	DWORD PTR -316[ebp]
.LEHB48:
	call	_ZNSt9basic_iosIcSt11char_traitsIcEE4initEPSt15basic_streambufIcS1_E@PLT
	mov	edx, DWORD PTR -336[ebp]
	add	esp, 12
	push	16
	push	DWORD PTR [edx]
	push	edi
	call	_ZNSt13basic_filebufIcSt11char_traitsIcEE4openEPKcSt13_Ios_Openmode@PLT
	mov	edx, DWORD PTR -304[ebp]
	mov	ecx, DWORD PTR -320[ebp]
	add	esp, 16
	add	ecx, DWORD PTR -12[edx]
	test	eax, eax
	je	.L572
	sub	esp, 8
	push	0
	push	ecx
	call	_ZNSt9basic_iosIcSt11char_traitsIcEE5clearESt12_Ios_Iostate@PLT
.LEHE48:
.L571:
	add	esp, 16
	lea	eax, -244[ebp]
	mov	ebx, esi
	sub	esp, 12
	mov	DWORD PTR -336[ebp], eax
	push	eax
	call	_ZNKSt12__basic_fileIcE7is_openEv@PLT
	add	esp, 16
	test	al, al
	jne	.L555
.L560:
	sub	esp, 12
	mov	ebx, esi
	push	edi
.LEHB49:
	call	_ZNSt13basic_filebufIcSt11char_traitsIcEE5closeEv@PLT
.LEHE49:
	add	esp, 16
	test	eax, eax
	je	.L573
.L561:
	mov	ebx, DWORD PTR -340[ebp]
	sub	esp, 12
	push	edi
	lea	eax, 12[ebx]
	mov	DWORD PTR -304[ebp], eax
	lea	eax, 32[ebx]
	mov	ebx, esi
	mov	DWORD PTR -164[ebp], eax
	mov	eax, DWORD PTR _ZTVSt13basic_filebufIcSt11char_traitsIcEE@GOT[esi]
	add	eax, 8
	mov	DWORD PTR -300[ebp], eax
	call	_ZNSt13basic_filebufIcSt11char_traitsIcEE5closeEv@PLT
	pop	eax
	push	DWORD PTR -336[ebp]
	call	_ZNSt12__basic_fileIcED1Ev@PLT
	mov	eax, DWORD PTR _ZTVSt15basic_streambufIcSt11char_traitsIcEE@GOT[esi]
	add	eax, 8
	mov	DWORD PTR -300[ebp], eax
	lea	eax, -272[ebp]
	mov	DWORD PTR [esp], eax
	call	_ZNSt6localeD1Ev@PLT
	mov	eax, DWORD PTR -324[ebp]
	mov	edi, DWORD PTR -328[ebp]
	pop	edx
	mov	DWORD PTR -304[ebp], eax
	mov	eax, DWORD PTR -12[eax]
	push	DWORD PTR -316[ebp]
	mov	DWORD PTR -304[ebp+eax], edi
	mov	eax, DWORD PTR -332[ebp]
	add	eax, 8
	mov	DWORD PTR -164[ebp], eax
	call	_ZNSt8ios_baseD2Ev@PLT
	add	esp, 16
	mov	eax, DWORD PTR -28[ebp]
	xor	eax, DWORD PTR gs:20
	jne	.L574
	lea	esp, -12[ebp]
	pop	ebx
	.cfi_remember_state
	.cfi_restore 3
	pop	esi
	.cfi_restore 6
	pop	edi
	.cfi_restore 7
	pop	ebp
	.cfi_restore 5
	.cfi_def_cfa 4, 4
	ret
	.p2align 4,,10
	.p2align 3
.L555:
	.cfi_restore_state
	mov	eax, DWORD PTR -344[ebp]
	sub	esp, 4
	push	DWORD PTR 4[eax]
	push	DWORD PTR [eax]
	push	DWORD PTR -320[ebp]
.LEHB50:
	call	_ZNSo5writeEPKci@PLT
.LEHE50:
	add	esp, 16
	jmp	.L560
	.p2align 4,,10
	.p2align 3
.L572:
	mov	eax, DWORD PTR 20[ecx]
	sub	esp, 8
	or	eax, 4
	push	eax
	push	ecx
.LEHB51:
	call	_ZNSt9basic_iosIcSt11char_traitsIcEE5clearESt12_Ios_Iostate@PLT
.LEHE51:
	jmp	.L571
	.p2align 4,,10
	.p2align 3
.L573:
	mov	eax, DWORD PTR -304[ebp]
	mov	edx, DWORD PTR -320[ebp]
	sub	esp, 8
	add	edx, DWORD PTR -12[eax]
	mov	eax, DWORD PTR 20[edx]
	or	eax, 4
	push	eax
	push	edx
.LEHB52:
	call	_ZNSt9basic_iosIcSt11char_traitsIcEE5clearESt12_Ios_Iostate@PLT
.LEHE52:
	add	esp, 16
	jmp	.L561
.L574:
	call	__stack_chk_fail_local
.L567:
	mov	edi, eax
	jmp	.L559
.L566:
	jmp	.L557
.L564:
	mov	edi, eax
	jmp	.L562
.L565:
	jmp	.L558
	.section	.gcc_except_table
.LLSDA3169:
	.byte	0xff
	.byte	0xff
	.byte	0x1
	.uleb128 .LLSDACSE3169-.LLSDACSB3169
.LLSDACSB3169:
	.uleb128 .LEHB46-.LFB3169
	.uleb128 .LEHE46-.LEHB46
	.uleb128 .L567-.LFB3169
	.uleb128 0
	.uleb128 .LEHB47-.LFB3169
	.uleb128 .LEHE47-.LEHB47
	.uleb128 .L565-.LFB3169
	.uleb128 0
	.uleb128 .LEHB48-.LFB3169
	.uleb128 .LEHE48-.LEHB48
	.uleb128 .L566-.LFB3169
	.uleb128 0
	.uleb128 .LEHB49-.LFB3169
	.uleb128 .LEHE49-.LEHB49
	.uleb128 .L564-.LFB3169
	.uleb128 0
	.uleb128 .LEHB50-.LFB3169
	.uleb128 .LEHE50-.LEHB50
	.uleb128 .L564-.LFB3169
	.uleb128 0
	.uleb128 .LEHB51-.LFB3169
	.uleb128 .LEHE51-.LEHB51
	.uleb128 .L566-.LFB3169
	.uleb128 0
	.uleb128 .LEHB52-.LFB3169
	.uleb128 .LEHE52-.LEHB52
	.uleb128 .L564-.LFB3169
	.uleb128 0
.LLSDACSE3169:
	.text
	.cfi_endproc
	.section	.text.unlikely
	.cfi_startproc
	.cfi_personality 0x9b,DW.ref.__gxx_personality_v0
	.cfi_lsda 0x1b,.LLSDAC3169
	.type	_Z9writeFileNSt7__cxx1112basic_stringIcSt11char_traitsIcESaIcEEES4_.cold.197, @function
_Z9writeFileNSt7__cxx1112basic_stringIcSt11char_traitsIcESaIcEEES4_.cold.197:
.LFSB3169:
.L557:
	.cfi_def_cfa 5, 8
	.cfi_offset 3, -20
	.cfi_offset 5, -8
	.cfi_offset 6, -16
	.cfi_offset 7, -12
	sub	esp, 12
	mov	ebx, esi
	mov	DWORD PTR -320[ebp], eax
	push	edi
	call	_ZNSt13basic_filebufIcSt11char_traitsIcEED1Ev@PLT
	mov	eax, DWORD PTR -320[ebp]
	add	esp, 16
.L558:
	mov	ecx, DWORD PTR -324[ebp]
	mov	edi, eax
	mov	DWORD PTR -304[ebp], ecx
	mov	eax, DWORD PTR -12[ecx]
	mov	ecx, DWORD PTR -328[ebp]
	mov	DWORD PTR -304[ebp+eax], ecx
.L559:
	sub	esp, 12
	mov	eax, DWORD PTR -332[ebp]
	push	DWORD PTR -316[ebp]
	mov	ebx, esi
	add	eax, 8
	mov	DWORD PTR -164[ebp], eax
	call	_ZNSt8ios_baseD2Ev@PLT
	mov	DWORD PTR [esp], edi
.LEHB53:
	call	_Unwind_Resume@PLT
.L562:
	sub	esp, 12
	push	DWORD PTR -320[ebp]
	mov	ebx, esi
	call	_ZNSt14basic_ofstreamIcSt11char_traitsIcEED1Ev@PLT
	mov	DWORD PTR [esp], edi
	call	_Unwind_Resume@PLT
.LEHE53:
	.cfi_endproc
.LFE3169:
	.section	.gcc_except_table
.LLSDAC3169:
	.byte	0xff
	.byte	0xff
	.byte	0x1
	.uleb128 .LLSDACSEC3169-.LLSDACSBC3169
.LLSDACSBC3169:
	.uleb128 .LEHB53-.LCOLDB37
	.uleb128 .LEHE53-.LEHB53
	.uleb128 0
	.uleb128 0
.LLSDACSEC3169:
	.section	.text.unlikely
	.text
	.size	_Z9writeFileNSt7__cxx1112basic_stringIcSt11char_traitsIcESaIcEEES4_, .-_Z9writeFileNSt7__cxx1112basic_stringIcSt11char_traitsIcESaIcEEES4_
	.section	.text.unlikely
	.size	_Z9writeFileNSt7__cxx1112basic_stringIcSt11char_traitsIcESaIcEEES4_.cold.197, .-_Z9writeFileNSt7__cxx1112basic_stringIcSt11char_traitsIcESaIcEEES4_.cold.197
.LCOLDE37:
	.text
.LHOTE37:
	.section	.rodata.str1.4
	.align 4
.LC38:
	.string	"\n  G::You have chosen GAS...\n  G::Loading...\n  G::Give name of file you want to compile here: "
	.align 4
.LC39:
	.string	"\n  G::Give name of the output file name here: "
	.section	.rodata.str1.1
.LC40:
	.string	"\n  G::GAS is now:"
	.text
	.p2align 4,,15
	.globl	_Z10getOptionsv
	.type	_Z10getOptionsv, @function
_Z10getOptionsv:
.LFB3171:
	.cfi_startproc
	push	edi
	.cfi_def_cfa_offset 8
	.cfi_offset 7, -8
	push	esi
	.cfi_def_cfa_offset 12
	.cfi_offset 6, -12
	push	ebx
	.cfi_def_cfa_offset 16
	.cfi_offset 3, -16
	call	__x86.get_pc_thunk.bx
	add	ebx, OFFSET FLAT:_GLOBAL_OFFSET_TABLE_
	sub	esp, 4
	.cfi_def_cfa_offset 20
	push	94
	.cfi_def_cfa_offset 24
	mov	esi, DWORD PTR _ZSt4cout@GOT[ebx]
	lea	eax, .LC38@GOTOFF[ebx]
	push	eax
	.cfi_def_cfa_offset 28
	push	esi
	.cfi_def_cfa_offset 32
	call	_ZSt16__ostream_insertIcSt11char_traitsIcEERSt13basic_ostreamIT_T0_ES6_PKS3_i@PLT
	mov	edi, DWORD PTR _ZSt3cin@GOT[ebx]
	pop	eax
	.cfi_def_cfa_offset 28
	lea	eax, _Z6inFileB5cxx11@GOTOFF[ebx]
	pop	edx
	.cfi_def_cfa_offset 24
	push	eax
	.cfi_def_cfa_offset 28
	push	edi
	.cfi_def_cfa_offset 32
	call	_ZStrsIcSt11char_traitsIcESaIcEERSt13basic_istreamIT_T0_ES7_RNSt7__cxx1112basic_stringIS4_S5_T1_EE@PLT
	add	esp, 12
	.cfi_def_cfa_offset 20
	lea	eax, .LC39@GOTOFF[ebx]
	push	46
	.cfi_def_cfa_offset 24
	push	eax
	.cfi_def_cfa_offset 28
	push	esi
	.cfi_def_cfa_offset 32
	call	_ZSt16__ostream_insertIcSt11char_traitsIcEERSt13basic_ostreamIT_T0_ES6_PKS3_i@PLT
	pop	ecx
	.cfi_def_cfa_offset 28
	pop	eax
	.cfi_def_cfa_offset 24
	lea	eax, _Z7outFileB5cxx11@GOTOFF[ebx]
	push	eax
	.cfi_def_cfa_offset 28
	push	edi
	.cfi_def_cfa_offset 32
	call	_ZStrsIcSt11char_traitsIcESaIcEERSt13basic_istreamIT_T0_ES7_RNSt7__cxx1112basic_stringIS4_S5_T1_EE@PLT
	add	esp, 12
	.cfi_def_cfa_offset 20
	lea	eax, .LC40@GOTOFF[ebx]
	push	17
	.cfi_def_cfa_offset 24
	push	eax
	.cfi_def_cfa_offset 28
	push	esi
	.cfi_def_cfa_offset 32
	call	_ZSt16__ostream_insertIcSt11char_traitsIcEERSt13basic_ostreamIT_T0_ES6_PKS3_i@PLT
	add	esp, 16
	.cfi_def_cfa_offset 16
	pop	ebx
	.cfi_restore 3
	.cfi_def_cfa_offset 12
	pop	esi
	.cfi_restore 6
	.cfi_def_cfa_offset 8
	pop	edi
	.cfi_restore 7
	.cfi_def_cfa_offset 4
	ret
	.cfi_endproc
.LFE3171:
	.size	_Z10getOptionsv, .-_Z10getOptionsv
	.section	.text._ZStplIcSt11char_traitsIcESaIcEENSt7__cxx1112basic_stringIT_T0_T1_EEOS8_S9_,"axG",@progbits,_ZStplIcSt11char_traitsIcESaIcEENSt7__cxx1112basic_stringIT_T0_T1_EEOS8_S9_,comdat
	.p2align 4,,15
	.weak	_ZStplIcSt11char_traitsIcESaIcEENSt7__cxx1112basic_stringIT_T0_T1_EEOS8_S9_
	.type	_ZStplIcSt11char_traitsIcESaIcEENSt7__cxx1112basic_stringIT_T0_T1_EEOS8_S9_, @function
_ZStplIcSt11char_traitsIcESaIcEENSt7__cxx1112basic_stringIT_T0_T1_EEOS8_S9_:
.LFB3404:
	.cfi_startproc
	call	__x86.get_pc_thunk.ax
	add	eax, OFFSET FLAT:_GLOBAL_OFFSET_TABLE_
	push	ebp
	.cfi_def_cfa_offset 8
	.cfi_offset 5, -8
	push	edi
	.cfi_def_cfa_offset 12
	.cfi_offset 7, -12
	push	esi
	.cfi_def_cfa_offset 16
	.cfi_offset 6, -16
	push	ebx
	.cfi_def_cfa_offset 20
	.cfi_offset 3, -20
	sub	esp, 28
	.cfi_def_cfa_offset 48
	mov	edx, DWORD PTR 56[esp]
	mov	esi, DWORD PTR 48[esp]
	mov	DWORD PTR 4[esp], eax
	mov	eax, DWORD PTR 52[esp]
	mov	ecx, DWORD PTR 4[edx]
	mov	edi, DWORD PTR 4[eax]
	mov	DWORD PTR 12[esp], edi
	lea	ebx, [edi+ecx]
	mov	edi, DWORD PTR [eax]
	mov	ebp, edi
	mov	DWORD PTR 8[esp], edi
	lea	edi, 8[eax]
	cmp	ebp, edi
	je	.L584
	mov	ebp, DWORD PTR 8[eax]
.L578:
	mov	edi, DWORD PTR [edx]
	cmp	ebx, ebp
	jbe	.L579
	lea	ebp, 8[edx]
	cmp	edi, ebp
	je	.L585
	mov	ebp, DWORD PTR 8[edx]
.L580:
	cmp	ebx, ebp
	jbe	.L587
.L579:
	sub	esp, 4
	.cfi_def_cfa_offset 52
	push	ecx
	.cfi_def_cfa_offset 56
	push	edi
	.cfi_def_cfa_offset 60
	push	eax
	.cfi_def_cfa_offset 64
	mov	ebx, DWORD PTR 20[esp]
	call	_ZNSt7__cxx1112basic_stringIcSt11char_traitsIcESaIcEE9_M_appendEPKcj@PLT
	lea	ebx, 8[esi]
	add	esp, 16
	.cfi_def_cfa_offset 48
	mov	DWORD PTR [esi], ebx
	mov	ecx, DWORD PTR [eax]
	lea	edx, 8[eax]
	cmp	ecx, edx
	je	.L588
.L582:
	mov	DWORD PTR [esi], ecx
	mov	ecx, DWORD PTR 8[eax]
	mov	DWORD PTR 8[esi], ecx
.L583:
	mov	ecx, DWORD PTR 4[eax]
	mov	DWORD PTR 4[esi], ecx
	mov	DWORD PTR [eax], edx
	mov	DWORD PTR 4[eax], 0
	mov	BYTE PTR 8[eax], 0
	add	esp, 28
	.cfi_remember_state
	.cfi_def_cfa_offset 20
	mov	eax, esi
	pop	ebx
	.cfi_restore 3
	.cfi_def_cfa_offset 16
	pop	esi
	.cfi_restore 6
	.cfi_def_cfa_offset 12
	pop	edi
	.cfi_restore 7
	.cfi_def_cfa_offset 8
	pop	ebp
	.cfi_restore 5
	.cfi_def_cfa_offset 4
	ret	4
	.p2align 4,,10
	.p2align 3
.L587:
	.cfi_restore_state
	sub	esp, 12
	.cfi_def_cfa_offset 60
	push	DWORD PTR 24[esp]
	.cfi_def_cfa_offset 64
	push	DWORD PTR 24[esp]
	.cfi_def_cfa_offset 68
	push	0
	.cfi_def_cfa_offset 72
	push	0
	.cfi_def_cfa_offset 76
	push	edx
	.cfi_def_cfa_offset 80
	mov	ebx, DWORD PTR 36[esp]
	call	_ZNSt7__cxx1112basic_stringIcSt11char_traitsIcESaIcEE10_M_replaceEjjPKcj@PLT
	lea	ebx, 8[esi]
	add	esp, 32
	.cfi_def_cfa_offset 48
	mov	DWORD PTR [esi], ebx
	mov	ecx, DWORD PTR [eax]
	lea	edx, 8[eax]
	cmp	ecx, edx
	jne	.L582
.L588:
	mov	ecx, DWORD PTR 8[eax]
	mov	DWORD PTR 8[esi], ecx
	mov	ecx, DWORD PTR 4[edx]
	mov	DWORD PTR 12[esi], ecx
	mov	ecx, DWORD PTR 8[edx]
	mov	DWORD PTR 16[esi], ecx
	mov	ecx, DWORD PTR 12[edx]
	mov	DWORD PTR 20[esi], ecx
	jmp	.L583
	.p2align 4,,10
	.p2align 3
.L584:
	mov	ebp, 15
	jmp	.L578
	.p2align 4,,10
	.p2align 3
.L585:
	mov	ebp, 15
	jmp	.L580
	.cfi_endproc
.LFE3404:
	.size	_ZStplIcSt11char_traitsIcESaIcEENSt7__cxx1112basic_stringIT_T0_T1_EEOS8_S9_, .-_ZStplIcSt11char_traitsIcESaIcEENSt7__cxx1112basic_stringIT_T0_T1_EEOS8_S9_
	.section	.text._ZStplIcSt11char_traitsIcESaIcEENSt7__cxx1112basic_stringIT_T0_T1_EERKS8_SA_,"axG",@progbits,_ZStplIcSt11char_traitsIcESaIcEENSt7__cxx1112basic_stringIT_T0_T1_EERKS8_SA_,comdat
	.p2align 4,,15
	.weak	_ZStplIcSt11char_traitsIcESaIcEENSt7__cxx1112basic_stringIT_T0_T1_EERKS8_SA_
	.type	_ZStplIcSt11char_traitsIcESaIcEENSt7__cxx1112basic_stringIT_T0_T1_EERKS8_SA_, @function
_ZStplIcSt11char_traitsIcESaIcEENSt7__cxx1112basic_stringIT_T0_T1_EERKS8_SA_:
.LFB3481:
	.cfi_startproc
	.cfi_personality 0x9b,DW.ref.__gxx_personality_v0
	.cfi_lsda 0x1b,.LLSDA3481
	call	__x86.get_pc_thunk.ax
	add	eax, OFFSET FLAT:_GLOBAL_OFFSET_TABLE_
	push	ebp
	.cfi_def_cfa_offset 8
	.cfi_offset 5, -8
	mov	ebp, esp
	.cfi_def_cfa_register 5
	push	edi
	push	esi
	push	ebx
	sub	esp, 44
	.cfi_offset 7, -12
	.cfi_offset 6, -16
	.cfi_offset 3, -20
	mov	esi, DWORD PTR 8[ebp]
	mov	ecx, DWORD PTR 16[ebp]
	mov	DWORD PTR -44[ebp], eax
	mov	eax, DWORD PTR 12[ebp]
	lea	ebx, 8[esi]
	mov	edx, DWORD PTR gs:20
	mov	DWORD PTR -28[ebp], edx
	xor	edx, edx
	mov	DWORD PTR [esi], ebx
	mov	edx, DWORD PTR [eax]
	mov	edi, DWORD PTR 4[eax]
	mov	DWORD PTR -48[ebp], ebx
	mov	eax, edx
	add	eax, edi
	je	.L590
	test	edx, edx
	je	.L608
.L590:
	mov	DWORD PTR -32[ebp], edi
	cmp	edi, 15
	ja	.L609
	cmp	edi, 1
	jne	.L593
	movzx	eax, BYTE PTR [edx]
	mov	BYTE PTR 8[esi], al
	mov	eax, DWORD PTR -48[ebp]
.L594:
	sub	esp, 4
	mov	DWORD PTR 4[esi], edi
	mov	ebx, DWORD PTR -44[ebp]
	mov	BYTE PTR [eax+edi], 0
	push	DWORD PTR 4[ecx]
	push	DWORD PTR [ecx]
	push	esi
.LEHB54:
	.cfi_escape 0x2e,0x10
	call	_ZNSt7__cxx1112basic_stringIcSt11char_traitsIcESaIcEE9_M_appendEPKcj@PLT
.LEHE54:
	add	esp, 16
	mov	eax, esi
	mov	ecx, DWORD PTR -28[ebp]
	xor	ecx, DWORD PTR gs:20
	jne	.L610
	lea	esp, -12[ebp]
	pop	ebx
	.cfi_remember_state
	.cfi_restore 3
	pop	esi
	.cfi_restore 6
	pop	edi
	.cfi_restore 7
	pop	ebp
	.cfi_restore 5
	.cfi_def_cfa 4, 4
	ret	4
	.p2align 4,,10
	.p2align 3
.L593:
	.cfi_restore_state
	mov	eax, DWORD PTR -48[ebp]
	test	edi, edi
	je	.L594
	jmp	.L592
	.p2align 4,,10
	.p2align 3
.L609:
	sub	esp, 4
	lea	eax, -32[ebp]
	mov	ebx, DWORD PTR -44[ebp]
	mov	DWORD PTR -56[ebp], ecx
	push	0
	push	eax
	push	esi
	mov	DWORD PTR -52[ebp], edx
.LEHB55:
	call	_ZNSt7__cxx1112basic_stringIcSt11char_traitsIcESaIcEE9_M_createERjj@PLT
	mov	edx, DWORD PTR -32[ebp]
	mov	ecx, DWORD PTR -56[ebp]
	add	esp, 16
	mov	DWORD PTR [esi], eax
	mov	DWORD PTR 8[esi], edx
	mov	edx, DWORD PTR -52[ebp]
.L592:
	sub	esp, 4
	mov	ebx, DWORD PTR -44[ebp]
	mov	DWORD PTR -52[ebp], ecx
	push	edi
	push	edx
	push	eax
	call	memcpy@PLT
	mov	edi, DWORD PTR -32[ebp]
	mov	eax, DWORD PTR [esi]
	add	esp, 16
	mov	ecx, DWORD PTR -52[ebp]
	jmp	.L594
.L608:
	mov	ebx, DWORD PTR -44[ebp]
	sub	esp, 12
	lea	eax, .LC0@GOTOFF[ebx]
	push	eax
	call	_ZSt19__throw_logic_errorPKc@PLT
.L610:
	call	__stack_chk_fail_local
.L599:
	mov	edi, eax
.L595:
	mov	edx, DWORD PTR [esi]
	cmp	DWORD PTR -48[ebp], edx
	je	.L596
	sub	esp, 12
	mov	ebx, DWORD PTR -44[ebp]
	push	edx
	call	_ZdlPv@PLT
	add	esp, 16
.L596:
	sub	esp, 12
	mov	ebx, DWORD PTR -44[ebp]
	push	edi
	call	_Unwind_Resume@PLT
.LEHE55:
	.cfi_endproc
.LFE3481:
	.section	.gcc_except_table
.LLSDA3481:
	.byte	0xff
	.byte	0xff
	.byte	0x1
	.uleb128 .LLSDACSE3481-.LLSDACSB3481
.LLSDACSB3481:
	.uleb128 .LEHB54-.LFB3481
	.uleb128 .LEHE54-.LEHB54
	.uleb128 .L599-.LFB3481
	.uleb128 0
	.uleb128 .LEHB55-.LFB3481
	.uleb128 .LEHE55-.LEHB55
	.uleb128 0
	.uleb128 0
.LLSDACSE3481:
	.section	.text._ZStplIcSt11char_traitsIcESaIcEENSt7__cxx1112basic_stringIT_T0_T1_EERKS8_SA_,"axG",@progbits,_ZStplIcSt11char_traitsIcESaIcEENSt7__cxx1112basic_stringIT_T0_T1_EERKS8_SA_,comdat
	.size	_ZStplIcSt11char_traitsIcESaIcEENSt7__cxx1112basic_stringIT_T0_T1_EERKS8_SA_, .-_ZStplIcSt11char_traitsIcESaIcEENSt7__cxx1112basic_stringIT_T0_T1_EERKS8_SA_
	.section	.text._ZStplIcSt11char_traitsIcESaIcEENSt7__cxx1112basic_stringIT_T0_T1_EEPKS5_RKS8_,"axG",@progbits,_ZStplIcSt11char_traitsIcESaIcEENSt7__cxx1112basic_stringIT_T0_T1_EEPKS5_RKS8_,comdat
	.p2align 4,,15
	.weak	_ZStplIcSt11char_traitsIcESaIcEENSt7__cxx1112basic_stringIT_T0_T1_EEPKS5_RKS8_
	.type	_ZStplIcSt11char_traitsIcESaIcEENSt7__cxx1112basic_stringIT_T0_T1_EEPKS5_RKS8_, @function
_ZStplIcSt11char_traitsIcESaIcEENSt7__cxx1112basic_stringIT_T0_T1_EEPKS5_RKS8_:
.LFB3524:
	.cfi_startproc
	.cfi_personality 0x9b,DW.ref.__gxx_personality_v0
	.cfi_lsda 0x1b,.LLSDA3524
	push	ebp
	.cfi_def_cfa_offset 8
	.cfi_offset 5, -8
	mov	ebp, esp
	.cfi_def_cfa_register 5
	push	edi
	.cfi_offset 7, -12
	call	__x86.get_pc_thunk.di
	add	edi, OFFSET FLAT:_GLOBAL_OFFSET_TABLE_
	push	esi
	push	ebx
	sub	esp, 40
	.cfi_offset 6, -16
	.cfi_offset 3, -20
	push	DWORD PTR 12[ebp]
	mov	esi, DWORD PTR 8[ebp]
	mov	ebx, edi
	call	strlen@PLT
	mov	ebx, DWORD PTR 16[ebp]
	pop	edx
	lea	edx, 8[esi]
	pop	ecx
	mov	DWORD PTR -28[ebp], eax
	mov	DWORD PTR [esi], edx
	mov	DWORD PTR 4[esi], 0
	mov	BYTE PTR 8[esi], 0
	add	eax, DWORD PTR 4[ebx]
	mov	ebx, edi
	push	eax
	push	esi
	mov	DWORD PTR -32[ebp], edx
.LEHB56:
	.cfi_escape 0x2e,0x10
	call	_ZNSt7__cxx1112basic_stringIcSt11char_traitsIcESaIcEE7reserveEj@PLT
	mov	eax, 2147483647
	add	esp, 16
	sub	eax, DWORD PTR 4[esi]
	cmp	DWORD PTR -28[ebp], eax
	ja	.L619
	sub	esp, 4
	push	DWORD PTR -28[ebp]
	push	DWORD PTR 12[ebp]
	push	esi
	call	_ZNSt7__cxx1112basic_stringIcSt11char_traitsIcESaIcEE9_M_appendEPKcj@PLT
	mov	eax, DWORD PTR 16[ebp]
	add	esp, 12
	push	DWORD PTR 4[eax]
	push	DWORD PTR [eax]
	push	esi
	call	_ZNSt7__cxx1112basic_stringIcSt11char_traitsIcESaIcEE9_M_appendEPKcj@PLT
	add	esp, 16
	lea	esp, -12[ebp]
	mov	eax, esi
	pop	ebx
	.cfi_remember_state
	.cfi_restore 3
	pop	esi
	.cfi_restore 6
	pop	edi
	.cfi_restore 7
	pop	ebp
	.cfi_restore 5
	.cfi_def_cfa 4, 4
	ret	4
.L619:
	.cfi_restore_state
	sub	esp, 12
	lea	eax, .LC1@GOTOFF[edi]
	push	eax
	call	_ZSt20__throw_length_errorPKc@PLT
.LEHE56:
.L615:
	mov	DWORD PTR -28[ebp], eax
.L613:
	mov	edx, DWORD PTR [esi]
	cmp	DWORD PTR -32[ebp], edx
	je	.L614
	sub	esp, 12
	mov	ebx, edi
	push	edx
	call	_ZdlPv@PLT
	add	esp, 16
.L614:
	sub	esp, 12
	push	DWORD PTR -28[ebp]
	mov	ebx, edi
.LEHB57:
	call	_Unwind_Resume@PLT
.LEHE57:
	.cfi_endproc
.LFE3524:
	.section	.gcc_except_table
.LLSDA3524:
	.byte	0xff
	.byte	0xff
	.byte	0x1
	.uleb128 .LLSDACSE3524-.LLSDACSB3524
.LLSDACSB3524:
	.uleb128 .LEHB56-.LFB3524
	.uleb128 .LEHE56-.LEHB56
	.uleb128 .L615-.LFB3524
	.uleb128 0
	.uleb128 .LEHB57-.LFB3524
	.uleb128 .LEHE57-.LEHB57
	.uleb128 0
	.uleb128 0
.LLSDACSE3524:
	.section	.text._ZStplIcSt11char_traitsIcESaIcEENSt7__cxx1112basic_stringIT_T0_T1_EEPKS5_RKS8_,"axG",@progbits,_ZStplIcSt11char_traitsIcESaIcEENSt7__cxx1112basic_stringIT_T0_T1_EEPKS5_RKS8_,comdat
	.size	_ZStplIcSt11char_traitsIcESaIcEENSt7__cxx1112basic_stringIT_T0_T1_EEPKS5_RKS8_, .-_ZStplIcSt11char_traitsIcESaIcEENSt7__cxx1112basic_stringIT_T0_T1_EEPKS5_RKS8_
	.section	.text._ZNSt8_Rb_treeINSt7__cxx1112basic_stringIcSt11char_traitsIcESaIcEEESt4pairIKS5_bESt10_Select1stIS8_ESt4lessIS5_ESaIS8_EE8_M_eraseEPSt13_Rb_tree_nodeIS8_E,"axG",@progbits,_ZNSt8_Rb_treeINSt7__cxx1112basic_stringIcSt11char_traitsIcESaIcEEESt4pairIKS5_bESt10_Select1stIS8_ESt4lessIS5_ESaIS8_EE8_M_eraseEPSt13_Rb_tree_nodeIS8_E,comdat
	.align 2
	.p2align 4,,15
	.weak	_ZNSt8_Rb_treeINSt7__cxx1112basic_stringIcSt11char_traitsIcESaIcEEESt4pairIKS5_bESt10_Select1stIS8_ESt4lessIS5_ESaIS8_EE8_M_eraseEPSt13_Rb_tree_nodeIS8_E
	.type	_ZNSt8_Rb_treeINSt7__cxx1112basic_stringIcSt11char_traitsIcESaIcEEESt4pairIKS5_bESt10_Select1stIS8_ESt4lessIS5_ESaIS8_EE8_M_eraseEPSt13_Rb_tree_nodeIS8_E, @function
_ZNSt8_Rb_treeINSt7__cxx1112basic_stringIcSt11char_traitsIcESaIcEEESt4pairIKS5_bESt10_Select1stIS8_ESt4lessIS5_ESaIS8_EE8_M_eraseEPSt13_Rb_tree_nodeIS8_E:
.LFB3787:
	.cfi_startproc
	push	ebp
	.cfi_def_cfa_offset 8
	.cfi_offset 5, -8
	push	edi
	.cfi_def_cfa_offset 12
	.cfi_offset 7, -12
	push	esi
	.cfi_def_cfa_offset 16
	.cfi_offset 6, -16
	push	ebx
	.cfi_def_cfa_offset 20
	.cfi_offset 3, -20
	call	__x86.get_pc_thunk.bx
	add	ebx, OFFSET FLAT:_GLOBAL_OFFSET_TABLE_
	sub	esp, 12
	.cfi_def_cfa_offset 32
	mov	esi, DWORD PTR 36[esp]
	mov	ebp, DWORD PTR 32[esp]
	test	esi, esi
	je	.L620
.L624:
	sub	esp, 8
	.cfi_def_cfa_offset 40
	push	DWORD PTR 12[esi]
	.cfi_def_cfa_offset 44
	push	ebp
	.cfi_def_cfa_offset 48
	call	_ZNSt8_Rb_treeINSt7__cxx1112basic_stringIcSt11char_traitsIcESaIcEEESt4pairIKS5_bESt10_Select1stIS8_ESt4lessIS5_ESaIS8_EE8_M_eraseEPSt13_Rb_tree_nodeIS8_E
	mov	eax, DWORD PTR 16[esi]
	lea	edx, 24[esi]
	mov	edi, DWORD PTR 8[esi]
	add	esp, 16
	.cfi_def_cfa_offset 32
	cmp	eax, edx
	je	.L622
	sub	esp, 12
	.cfi_def_cfa_offset 44
	push	eax
	.cfi_def_cfa_offset 48
	call	_ZdlPv@PLT
	mov	DWORD PTR [esp], esi
	call	_ZdlPv@PLT
	add	esp, 16
	.cfi_def_cfa_offset 32
	test	edi, edi
	je	.L620
.L623:
	mov	esi, edi
	jmp	.L624
	.p2align 4,,10
	.p2align 3
.L622:
	sub	esp, 12
	.cfi_def_cfa_offset 44
	push	esi
	.cfi_def_cfa_offset 48
	call	_ZdlPv@PLT
	add	esp, 16
	.cfi_def_cfa_offset 32
	test	edi, edi
	jne	.L623
.L620:
	add	esp, 12
	.cfi_def_cfa_offset 20
	pop	ebx
	.cfi_restore 3
	.cfi_def_cfa_offset 16
	pop	esi
	.cfi_restore 6
	.cfi_def_cfa_offset 12
	pop	edi
	.cfi_restore 7
	.cfi_def_cfa_offset 8
	pop	ebp
	.cfi_restore 5
	.cfi_def_cfa_offset 4
	ret
	.cfi_endproc
.LFE3787:
	.size	_ZNSt8_Rb_treeINSt7__cxx1112basic_stringIcSt11char_traitsIcESaIcEEESt4pairIKS5_bESt10_Select1stIS8_ESt4lessIS5_ESaIS8_EE8_M_eraseEPSt13_Rb_tree_nodeIS8_E, .-_ZNSt8_Rb_treeINSt7__cxx1112basic_stringIcSt11char_traitsIcESaIcEEESt4pairIKS5_bESt10_Select1stIS8_ESt4lessIS5_ESaIS8_EE8_M_eraseEPSt13_Rb_tree_nodeIS8_E
	.section	.text._ZNSt3mapINSt7__cxx1112basic_stringIcSt11char_traitsIcESaIcEEEbSt4lessIS5_ESaISt4pairIKS5_bEEED2Ev,"axG",@progbits,_ZNSt3mapINSt7__cxx1112basic_stringIcSt11char_traitsIcESaIcEEEbSt4lessIS5_ESaISt4pairIKS5_bEEED5Ev,comdat
	.align 2
	.p2align 4,,15
	.weak	_ZNSt3mapINSt7__cxx1112basic_stringIcSt11char_traitsIcESaIcEEEbSt4lessIS5_ESaISt4pairIKS5_bEEED2Ev
	.type	_ZNSt3mapINSt7__cxx1112basic_stringIcSt11char_traitsIcESaIcEEEbSt4lessIS5_ESaISt4pairIKS5_bEEED2Ev, @function
_ZNSt3mapINSt7__cxx1112basic_stringIcSt11char_traitsIcESaIcEEEbSt4lessIS5_ESaISt4pairIKS5_bEEED2Ev:
.LFB4445:
	.cfi_startproc
	push	ebp
	.cfi_def_cfa_offset 8
	.cfi_offset 5, -8
	push	edi
	.cfi_def_cfa_offset 12
	.cfi_offset 7, -12
	push	esi
	.cfi_def_cfa_offset 16
	.cfi_offset 6, -16
	push	ebx
	.cfi_def_cfa_offset 20
	.cfi_offset 3, -20
	call	__x86.get_pc_thunk.bx
	add	ebx, OFFSET FLAT:_GLOBAL_OFFSET_TABLE_
	sub	esp, 12
	.cfi_def_cfa_offset 32
	mov	ebp, DWORD PTR 32[esp]
	mov	esi, DWORD PTR 8[ebp]
	test	esi, esi
	je	.L635
.L639:
	sub	esp, 8
	.cfi_def_cfa_offset 40
	push	DWORD PTR 12[esi]
	.cfi_def_cfa_offset 44
	push	ebp
	.cfi_def_cfa_offset 48
	call	_ZNSt8_Rb_treeINSt7__cxx1112basic_stringIcSt11char_traitsIcESaIcEEESt4pairIKS5_bESt10_Select1stIS8_ESt4lessIS5_ESaIS8_EE8_M_eraseEPSt13_Rb_tree_nodeIS8_E
	mov	eax, DWORD PTR 16[esi]
	lea	edx, 24[esi]
	mov	edi, DWORD PTR 8[esi]
	add	esp, 16
	.cfi_def_cfa_offset 32
	cmp	eax, edx
	je	.L637
	sub	esp, 12
	.cfi_def_cfa_offset 44
	push	eax
	.cfi_def_cfa_offset 48
	call	_ZdlPv@PLT
	mov	DWORD PTR [esp], esi
	call	_ZdlPv@PLT
	add	esp, 16
	.cfi_def_cfa_offset 32
	test	edi, edi
	je	.L635
.L638:
	mov	esi, edi
	jmp	.L639
	.p2align 4,,10
	.p2align 3
.L637:
	sub	esp, 12
	.cfi_def_cfa_offset 44
	push	esi
	.cfi_def_cfa_offset 48
	call	_ZdlPv@PLT
	add	esp, 16
	.cfi_def_cfa_offset 32
	test	edi, edi
	jne	.L638
.L635:
	add	esp, 12
	.cfi_def_cfa_offset 20
	pop	ebx
	.cfi_restore 3
	.cfi_def_cfa_offset 16
	pop	esi
	.cfi_restore 6
	.cfi_def_cfa_offset 12
	pop	edi
	.cfi_restore 7
	.cfi_def_cfa_offset 8
	pop	ebp
	.cfi_restore 5
	.cfi_def_cfa_offset 4
	ret
	.cfi_endproc
.LFE4445:
	.size	_ZNSt3mapINSt7__cxx1112basic_stringIcSt11char_traitsIcESaIcEEEbSt4lessIS5_ESaISt4pairIKS5_bEEED2Ev, .-_ZNSt3mapINSt7__cxx1112basic_stringIcSt11char_traitsIcESaIcEEEbSt4lessIS5_ESaISt4pairIKS5_bEEED2Ev
	.weak	_ZNSt3mapINSt7__cxx1112basic_stringIcSt11char_traitsIcESaIcEEEbSt4lessIS5_ESaISt4pairIKS5_bEEED1Ev
	.set	_ZNSt3mapINSt7__cxx1112basic_stringIcSt11char_traitsIcESaIcEEEbSt4lessIS5_ESaISt4pairIKS5_bEEED1Ev,_ZNSt3mapINSt7__cxx1112basic_stringIcSt11char_traitsIcESaIcEEEbSt4lessIS5_ESaISt4pairIKS5_bEEED2Ev
	.section	.text._ZNSt8_Rb_treeINSt7__cxx1112basic_stringIcSt11char_traitsIcESaIcEEESt4pairIKS5_S5_ESt10_Select1stIS8_ESt4lessIS5_ESaIS8_EE8_M_eraseEPSt13_Rb_tree_nodeIS8_E,"axG",@progbits,_ZNSt8_Rb_treeINSt7__cxx1112basic_stringIcSt11char_traitsIcESaIcEEESt4pairIKS5_S5_ESt10_Select1stIS8_ESt4lessIS5_ESaIS8_EE8_M_eraseEPSt13_Rb_tree_nodeIS8_E,comdat
	.align 2
	.p2align 4,,15
	.weak	_ZNSt8_Rb_treeINSt7__cxx1112basic_stringIcSt11char_traitsIcESaIcEEESt4pairIKS5_S5_ESt10_Select1stIS8_ESt4lessIS5_ESaIS8_EE8_M_eraseEPSt13_Rb_tree_nodeIS8_E
	.type	_ZNSt8_Rb_treeINSt7__cxx1112basic_stringIcSt11char_traitsIcESaIcEEESt4pairIKS5_S5_ESt10_Select1stIS8_ESt4lessIS5_ESaIS8_EE8_M_eraseEPSt13_Rb_tree_nodeIS8_E, @function
_ZNSt8_Rb_treeINSt7__cxx1112basic_stringIcSt11char_traitsIcESaIcEEESt4pairIKS5_S5_ESt10_Select1stIS8_ESt4lessIS5_ESaIS8_EE8_M_eraseEPSt13_Rb_tree_nodeIS8_E:
.LFB3795:
	.cfi_startproc
	push	ebp
	.cfi_def_cfa_offset 8
	.cfi_offset 5, -8
	push	edi
	.cfi_def_cfa_offset 12
	.cfi_offset 7, -12
	push	esi
	.cfi_def_cfa_offset 16
	.cfi_offset 6, -16
	push	ebx
	.cfi_def_cfa_offset 20
	.cfi_offset 3, -20
	call	__x86.get_pc_thunk.bx
	add	ebx, OFFSET FLAT:_GLOBAL_OFFSET_TABLE_
	sub	esp, 12
	.cfi_def_cfa_offset 32
	mov	esi, DWORD PTR 36[esp]
	mov	ebp, DWORD PTR 32[esp]
	test	esi, esi
	je	.L650
.L655:
	sub	esp, 8
	.cfi_def_cfa_offset 40
	push	DWORD PTR 12[esi]
	.cfi_def_cfa_offset 44
	push	ebp
	.cfi_def_cfa_offset 48
	call	_ZNSt8_Rb_treeINSt7__cxx1112basic_stringIcSt11char_traitsIcESaIcEEESt4pairIKS5_S5_ESt10_Select1stIS8_ESt4lessIS5_ESaIS8_EE8_M_eraseEPSt13_Rb_tree_nodeIS8_E
	mov	eax, DWORD PTR 40[esi]
	lea	edx, 48[esi]
	mov	edi, DWORD PTR 8[esi]
	add	esp, 16
	.cfi_def_cfa_offset 32
	cmp	eax, edx
	je	.L652
	sub	esp, 12
	.cfi_def_cfa_offset 44
	push	eax
	.cfi_def_cfa_offset 48
	call	_ZdlPv@PLT
	add	esp, 16
	.cfi_def_cfa_offset 32
.L652:
	mov	eax, DWORD PTR 16[esi]
	lea	edx, 24[esi]
	cmp	eax, edx
	je	.L653
	sub	esp, 12
	.cfi_def_cfa_offset 44
	push	eax
	.cfi_def_cfa_offset 48
	call	_ZdlPv@PLT
	mov	DWORD PTR [esp], esi
	call	_ZdlPv@PLT
	add	esp, 16
	.cfi_def_cfa_offset 32
	test	edi, edi
	je	.L650
.L654:
	mov	esi, edi
	jmp	.L655
	.p2align 4,,10
	.p2align 3
.L653:
	sub	esp, 12
	.cfi_def_cfa_offset 44
	push	esi
	.cfi_def_cfa_offset 48
	call	_ZdlPv@PLT
	add	esp, 16
	.cfi_def_cfa_offset 32
	test	edi, edi
	jne	.L654
.L650:
	add	esp, 12
	.cfi_def_cfa_offset 20
	pop	ebx
	.cfi_restore 3
	.cfi_def_cfa_offset 16
	pop	esi
	.cfi_restore 6
	.cfi_def_cfa_offset 12
	pop	edi
	.cfi_restore 7
	.cfi_def_cfa_offset 8
	pop	ebp
	.cfi_restore 5
	.cfi_def_cfa_offset 4
	ret
	.cfi_endproc
.LFE3795:
	.size	_ZNSt8_Rb_treeINSt7__cxx1112basic_stringIcSt11char_traitsIcESaIcEEESt4pairIKS5_S5_ESt10_Select1stIS8_ESt4lessIS5_ESaIS8_EE8_M_eraseEPSt13_Rb_tree_nodeIS8_E, .-_ZNSt8_Rb_treeINSt7__cxx1112basic_stringIcSt11char_traitsIcESaIcEEESt4pairIKS5_S5_ESt10_Select1stIS8_ESt4lessIS5_ESaIS8_EE8_M_eraseEPSt13_Rb_tree_nodeIS8_E
	.section	.text._ZNSt3mapINSt7__cxx1112basic_stringIcSt11char_traitsIcESaIcEEES5_St4lessIS5_ESaISt4pairIKS5_S5_EEED2Ev,"axG",@progbits,_ZNSt3mapINSt7__cxx1112basic_stringIcSt11char_traitsIcESaIcEEES5_St4lessIS5_ESaISt4pairIKS5_S5_EEED5Ev,comdat
	.align 2
	.p2align 4,,15
	.weak	_ZNSt3mapINSt7__cxx1112basic_stringIcSt11char_traitsIcESaIcEEES5_St4lessIS5_ESaISt4pairIKS5_S5_EEED2Ev
	.type	_ZNSt3mapINSt7__cxx1112basic_stringIcSt11char_traitsIcESaIcEEES5_St4lessIS5_ESaISt4pairIKS5_S5_EEED2Ev, @function
_ZNSt3mapINSt7__cxx1112basic_stringIcSt11char_traitsIcESaIcEEES5_St4lessIS5_ESaISt4pairIKS5_S5_EEED2Ev:
.LFB4448:
	.cfi_startproc
	push	ebp
	.cfi_def_cfa_offset 8
	.cfi_offset 5, -8
	push	edi
	.cfi_def_cfa_offset 12
	.cfi_offset 7, -12
	push	esi
	.cfi_def_cfa_offset 16
	.cfi_offset 6, -16
	push	ebx
	.cfi_def_cfa_offset 20
	.cfi_offset 3, -20
	call	__x86.get_pc_thunk.bx
	add	ebx, OFFSET FLAT:_GLOBAL_OFFSET_TABLE_
	sub	esp, 12
	.cfi_def_cfa_offset 32
	mov	ebp, DWORD PTR 32[esp]
	mov	esi, DWORD PTR 8[ebp]
	test	esi, esi
	je	.L666
.L671:
	sub	esp, 8
	.cfi_def_cfa_offset 40
	push	DWORD PTR 12[esi]
	.cfi_def_cfa_offset 44
	push	ebp
	.cfi_def_cfa_offset 48
	call	_ZNSt8_Rb_treeINSt7__cxx1112basic_stringIcSt11char_traitsIcESaIcEEESt4pairIKS5_S5_ESt10_Select1stIS8_ESt4lessIS5_ESaIS8_EE8_M_eraseEPSt13_Rb_tree_nodeIS8_E
	mov	eax, DWORD PTR 40[esi]
	lea	edx, 48[esi]
	mov	edi, DWORD PTR 8[esi]
	add	esp, 16
	.cfi_def_cfa_offset 32
	cmp	eax, edx
	je	.L668
	sub	esp, 12
	.cfi_def_cfa_offset 44
	push	eax
	.cfi_def_cfa_offset 48
	call	_ZdlPv@PLT
	add	esp, 16
	.cfi_def_cfa_offset 32
.L668:
	mov	eax, DWORD PTR 16[esi]
	lea	edx, 24[esi]
	cmp	eax, edx
	je	.L669
	sub	esp, 12
	.cfi_def_cfa_offset 44
	push	eax
	.cfi_def_cfa_offset 48
	call	_ZdlPv@PLT
	mov	DWORD PTR [esp], esi
	call	_ZdlPv@PLT
	add	esp, 16
	.cfi_def_cfa_offset 32
	test	edi, edi
	je	.L666
.L670:
	mov	esi, edi
	jmp	.L671
	.p2align 4,,10
	.p2align 3
.L669:
	sub	esp, 12
	.cfi_def_cfa_offset 44
	push	esi
	.cfi_def_cfa_offset 48
	call	_ZdlPv@PLT
	add	esp, 16
	.cfi_def_cfa_offset 32
	test	edi, edi
	jne	.L670
.L666:
	add	esp, 12
	.cfi_def_cfa_offset 20
	pop	ebx
	.cfi_restore 3
	.cfi_def_cfa_offset 16
	pop	esi
	.cfi_restore 6
	.cfi_def_cfa_offset 12
	pop	edi
	.cfi_restore 7
	.cfi_def_cfa_offset 8
	pop	ebp
	.cfi_restore 5
	.cfi_def_cfa_offset 4
	ret
	.cfi_endproc
.LFE4448:
	.size	_ZNSt3mapINSt7__cxx1112basic_stringIcSt11char_traitsIcESaIcEEES5_St4lessIS5_ESaISt4pairIKS5_S5_EEED2Ev, .-_ZNSt3mapINSt7__cxx1112basic_stringIcSt11char_traitsIcESaIcEEES5_St4lessIS5_ESaISt4pairIKS5_S5_EEED2Ev
	.weak	_ZNSt3mapINSt7__cxx1112basic_stringIcSt11char_traitsIcESaIcEEES5_St4lessIS5_ESaISt4pairIKS5_S5_EEED1Ev
	.set	_ZNSt3mapINSt7__cxx1112basic_stringIcSt11char_traitsIcESaIcEEES5_St4lessIS5_ESaISt4pairIKS5_S5_EEED1Ev,_ZNSt3mapINSt7__cxx1112basic_stringIcSt11char_traitsIcESaIcEEES5_St4lessIS5_ESaISt4pairIKS5_S5_EEED2Ev
	.text
	.p2align 4,,15
	.globl	_Z22disconnectFromRegisterNSt7__cxx1112basic_stringIcSt11char_traitsIcESaIcEEE
	.type	_Z22disconnectFromRegisterNSt7__cxx1112basic_stringIcSt11char_traitsIcESaIcEEE, @function
_Z22disconnectFromRegisterNSt7__cxx1112basic_stringIcSt11char_traitsIcESaIcEEE:
.LFB3099:
	.cfi_startproc
	push	ebp
	.cfi_def_cfa_offset 8
	.cfi_offset 5, -8
	push	edi
	.cfi_def_cfa_offset 12
	.cfi_offset 7, -12
	push	esi
	.cfi_def_cfa_offset 16
	.cfi_offset 6, -16
	push	ebx
	.cfi_def_cfa_offset 20
	.cfi_offset 3, -20
	call	__x86.get_pc_thunk.bx
	add	ebx, OFFSET FLAT:_GLOBAL_OFFSET_TABLE_
	sub	esp, 60
	.cfi_def_cfa_offset 80
	mov	eax, DWORD PTR _Z11varPointersB5cxx11@GOTOFF[ebx+12]
	mov	DWORD PTR 28[esp], eax
	lea	eax, _Z11varPointersB5cxx11@GOTOFF[ebx+4]
	mov	DWORD PTR 32[esp], eax
	mov	DWORD PTR 36[esp], eax
	lea	eax, _Z11varPointersB5cxx11@GOTOFF[ebx]
	mov	DWORD PTR 44[esp], eax
.L721:
	mov	edi, DWORD PTR 36[esp]
	mov	eax, DWORD PTR 28[esp]
	cmp	edi, eax
	je	.L682
	mov	eax, DWORD PTR 80[esp]
	mov	esi, DWORD PTR 4[eax]
.L684:
	sub	esp, 12
	.cfi_def_cfa_offset 92
	push	edi
	.cfi_def_cfa_offset 96
	call	_ZSt18_Rb_tree_decrementPSt18_Rb_tree_node_base@PLT
	add	esp, 16
	.cfi_def_cfa_offset 80
	mov	ebp, eax
	cmp	DWORD PTR 44[eax], esi
	je	.L767
.L685:
	mov	edi, ebp
	cmp	ebp, DWORD PTR 28[esp]
	jne	.L684
.L682:
	add	esp, 60
	.cfi_remember_state
	.cfi_def_cfa_offset 20
	pop	ebx
	.cfi_restore 3
	.cfi_def_cfa_offset 16
	pop	esi
	.cfi_restore 6
	.cfi_def_cfa_offset 12
	pop	edi
	.cfi_restore 7
	.cfi_def_cfa_offset 8
	pop	ebp
	.cfi_restore 5
	.cfi_def_cfa_offset 4
	ret
	.p2align 4,,10
	.p2align 3
.L767:
	.cfi_restore_state
	test	esi, esi
	je	.L686
	sub	esp, 4
	.cfi_def_cfa_offset 84
	push	esi
	.cfi_def_cfa_offset 88
	mov	eax, DWORD PTR 88[esp]
	push	DWORD PTR [eax]
	.cfi_def_cfa_offset 92
	push	DWORD PTR 40[ebp]
	.cfi_def_cfa_offset 96
	call	memcmp@PLT
	add	esp, 16
	.cfi_def_cfa_offset 80
	test	eax, eax
	jne	.L685
.L686:
	mov	esi, DWORD PTR _Z11varPointersB5cxx11@GOTOFF[ebx+8]
	mov	DWORD PTR 36[esp], edi
	mov	DWORD PTR 40[esp], esi
	test	esi, esi
	je	.L687
	mov	eax, DWORD PTR 16[ebp]
	mov	edi, DWORD PTR 20[ebp]
	mov	DWORD PTR 16[esp], eax
	mov	eax, DWORD PTR 32[esp]
	mov	DWORD PTR 12[esp], eax
	.p2align 4,,10
	.p2align 3
.L688:
	mov	ebp, DWORD PTR 20[esi]
	mov	edx, edi
	mov	ecx, DWORD PTR 16[esi]
	cmp	ebp, edi
	cmovbe	edx, ebp
	test	edx, edx
	je	.L692
	sub	esp, 4
	.cfi_def_cfa_offset 84
	push	edx
	.cfi_def_cfa_offset 88
	mov	DWORD PTR 32[esp], edx
	push	DWORD PTR 24[esp]
	.cfi_def_cfa_offset 92
	push	ecx
	.cfi_def_cfa_offset 96
	mov	DWORD PTR 36[esp], ecx
	call	memcmp@PLT
	add	esp, 16
	.cfi_def_cfa_offset 80
	mov	ecx, DWORD PTR 20[esp]
	mov	edx, DWORD PTR 24[esp]
	test	eax, eax
	jne	.L765
	cmp	ebp, edi
.L765:
	js	.L722
	sub	esp, 4
	.cfi_def_cfa_offset 84
	push	edx
	.cfi_def_cfa_offset 88
	push	ecx
	.cfi_def_cfa_offset 92
	push	DWORD PTR 28[esp]
	.cfi_def_cfa_offset 96
	call	memcmp@PLT
	add	esp, 16
	.cfi_def_cfa_offset 80
	test	eax, eax
	jne	.L696
.L724:
	mov	eax, edi
	sub	eax, ebp
.L696:
	mov	ebp, DWORD PTR 8[esi]
	test	eax, eax
	jns	.L768
	mov	DWORD PTR 12[esp], esi
	test	ebp, ebp
	je	.L769
.L725:
	mov	esi, ebp
	jmp	.L688
	.p2align 4,,10
	.p2align 3
.L692:
	cmp	ebp, edi
	jns	.L724
.L722:
	mov	ebp, DWORD PTR 12[esi]
	test	ebp, ebp
	jne	.L725
.L769:
	mov	eax, DWORD PTR 12[esp]
	mov	ecx, DWORD PTR 28[esp]
	cmp	eax, ecx
	jne	.L721
	mov	ecx, DWORD PTR 32[esp]
	cmp	eax, ecx
	jne	.L721
.L759:
	mov	esi, DWORD PTR 40[esp]
.L715:
	sub	esp, 8
	.cfi_def_cfa_offset 88
	push	DWORD PTR 12[esi]
	.cfi_def_cfa_offset 92
	push	DWORD PTR 56[esp]
	.cfi_def_cfa_offset 96
	call	_ZNSt8_Rb_treeINSt7__cxx1112basic_stringIcSt11char_traitsIcESaIcEEESt4pairIKS5_S5_ESt10_Select1stIS8_ESt4lessIS5_ESaIS8_EE8_M_eraseEPSt13_Rb_tree_nodeIS8_E
	mov	eax, DWORD PTR 40[esi]
	lea	edx, 48[esi]
	mov	edi, DWORD PTR 8[esi]
	add	esp, 16
	.cfi_def_cfa_offset 80
	cmp	eax, edx
	je	.L711
	sub	esp, 12
	.cfi_def_cfa_offset 92
	push	eax
	.cfi_def_cfa_offset 96
	call	_ZdlPv@PLT
	add	esp, 16
	.cfi_def_cfa_offset 80
.L711:
	mov	eax, DWORD PTR 16[esi]
	lea	edx, 24[esi]
	cmp	eax, edx
	je	.L712
	sub	esp, 12
	.cfi_def_cfa_offset 92
	push	eax
	.cfi_def_cfa_offset 96
	call	_ZdlPv@PLT
	mov	DWORD PTR [esp], esi
	call	_ZdlPv@PLT
	add	esp, 16
	.cfi_def_cfa_offset 80
	test	edi, edi
	je	.L713
.L714:
	mov	esi, edi
	jmp	.L715
	.p2align 4,,10
	.p2align 3
.L768:
	mov	edx, DWORD PTR 12[esi]
	test	edx, edx
	je	.L697
	mov	DWORD PTR 24[esp], esi
	mov	esi, edx
	mov	DWORD PTR 20[esp], ebp
	jmp	.L698
	.p2align 4,,10
	.p2align 3
.L703:
	mov	esi, DWORD PTR 12[esi]
	test	esi, esi
	je	.L770
.L698:
	mov	ebp, DWORD PTR 20[esi]
	cmp	edi, ebp
	mov	eax, ebp
	cmovbe	eax, edi
	test	eax, eax
	je	.L701
	sub	esp, 4
	.cfi_def_cfa_offset 84
	push	eax
	.cfi_def_cfa_offset 88
	push	DWORD PTR 16[esi]
	.cfi_def_cfa_offset 92
	push	DWORD PTR 28[esp]
	.cfi_def_cfa_offset 96
	call	memcmp@PLT
	add	esp, 16
	.cfi_def_cfa_offset 80
	test	eax, eax
	jne	.L702
.L701:
	mov	eax, edi
	sub	eax, ebp
.L702:
	test	eax, eax
	jns	.L703
	mov	DWORD PTR 12[esp], esi
	mov	esi, DWORD PTR 8[esi]
	test	esi, esi
	jne	.L698
.L770:
	mov	ebp, DWORD PTR 20[esp]
	mov	esi, DWORD PTR 24[esp]
.L697:
	test	ebp, ebp
	je	.L699
	mov	DWORD PTR 20[esp], esi
	jmp	.L700
	.p2align 4,,10
	.p2align 3
.L771:
	mov	DWORD PTR 20[esp], ebp
	mov	ebp, DWORD PTR 8[ebp]
	test	ebp, ebp
	je	.L762
.L700:
	mov	esi, DWORD PTR 20[ebp]
	cmp	edi, esi
	mov	eax, esi
	cmovbe	eax, edi
	test	eax, eax
	je	.L705
	sub	esp, 4
	.cfi_def_cfa_offset 84
	push	eax
	.cfi_def_cfa_offset 88
	push	DWORD PTR 24[esp]
	.cfi_def_cfa_offset 92
	push	DWORD PTR 16[ebp]
	.cfi_def_cfa_offset 96
	call	memcmp@PLT
	add	esp, 16
	.cfi_def_cfa_offset 80
	test	eax, eax
	jne	.L706
.L705:
	mov	eax, esi
	sub	eax, edi
.L706:
	test	eax, eax
	jns	.L771
	mov	ebp, DWORD PTR 12[ebp]
	test	ebp, ebp
	jne	.L700
.L762:
	mov	esi, DWORD PTR 20[esp]
.L699:
	cmp	esi, DWORD PTR 28[esp]
	je	.L772
.L710:
	cmp	esi, DWORD PTR 12[esp]
	je	.L721
	lea	edi, _Z11varPointersB5cxx11@GOTOFF
	jmp	.L720
	.p2align 4,,10
	.p2align 3
.L773:
	sub	esp, 12
	.cfi_def_cfa_offset 92
	push	edx
	.cfi_def_cfa_offset 96
	call	_ZdlPv@PLT
	mov	DWORD PTR [esp], esi
.L766:
	call	_ZdlPv@PLT
	add	esp, 16
	.cfi_def_cfa_offset 80
	sub	DWORD PTR 20[edi+ebx], 1
	cmp	ebp, DWORD PTR 12[esp]
	je	.L719
	mov	esi, ebp
.L720:
	sub	esp, 12
	.cfi_def_cfa_offset 92
	push	esi
	.cfi_def_cfa_offset 96
	call	_ZSt18_Rb_tree_incrementPKSt18_Rb_tree_node_base@PLT
	pop	edx
	.cfi_def_cfa_offset 92
	pop	ecx
	.cfi_def_cfa_offset 88
	push	DWORD PTR 40[esp]
	.cfi_def_cfa_offset 92
	push	esi
	.cfi_def_cfa_offset 96
	mov	ebp, eax
	call	_ZSt28_Rb_tree_rebalance_for_erasePSt18_Rb_tree_node_baseRS_@PLT
	add	esp, 16
	.cfi_def_cfa_offset 80
	mov	edx, DWORD PTR 40[eax]
	lea	ecx, 48[eax]
	mov	esi, eax
	cmp	edx, ecx
	je	.L716
	sub	esp, 12
	.cfi_def_cfa_offset 92
	push	edx
	.cfi_def_cfa_offset 96
	call	_ZdlPv@PLT
	add	esp, 16
	.cfi_def_cfa_offset 80
.L716:
	mov	edx, DWORD PTR 16[esi]
	lea	ecx, 24[esi]
	cmp	edx, ecx
	jne	.L773
	sub	esp, 12
	.cfi_remember_state
	.cfi_def_cfa_offset 92
	push	esi
	.cfi_def_cfa_offset 96
	jmp	.L766
	.p2align 4,,10
	.p2align 3
.L719:
	.cfi_restore_state
	mov	eax, DWORD PTR _Z11varPointersB5cxx11@GOTOFF[ebx+12]
	mov	DWORD PTR 28[esp], eax
	jmp	.L721
	.p2align 4,,10
	.p2align 3
.L772:
	mov	ecx, DWORD PTR 32[esp]
	cmp	DWORD PTR 12[esp], ecx
	jne	.L710
	jmp	.L759
	.p2align 4,,10
	.p2align 3
.L712:
	sub	esp, 12
	.cfi_def_cfa_offset 92
	push	esi
	.cfi_def_cfa_offset 96
	call	_ZdlPv@PLT
	add	esp, 16
	.cfi_def_cfa_offset 80
	test	edi, edi
	jne	.L714
	.p2align 4,,10
	.p2align 3
.L713:
	mov	DWORD PTR _Z11varPointersB5cxx11@GOTOFF[ebx+8], 0
	mov	eax, DWORD PTR 32[esp]
	mov	DWORD PTR _Z11varPointersB5cxx11@GOTOFF[ebx+20], 0
	mov	DWORD PTR _Z11varPointersB5cxx11@GOTOFF[ebx+12], eax
	mov	DWORD PTR _Z11varPointersB5cxx11@GOTOFF[ebx+16], eax
	mov	DWORD PTR 28[esp], eax
	jmp	.L721
	.p2align 4,,10
	.p2align 3
.L687:
	mov	ecx, DWORD PTR 32[esp]
	cmp	DWORD PTR 28[esp], ecx
	je	.L713
	jmp	.L721
	.cfi_endproc
.LFE3099:
	.size	_Z22disconnectFromRegisterNSt7__cxx1112basic_stringIcSt11char_traitsIcESaIcEEE, .-_Z22disconnectFromRegisterNSt7__cxx1112basic_stringIcSt11char_traitsIcESaIcEEE
	.section	.text._ZNSt8_Rb_treeINSt7__cxx1112basic_stringIcSt11char_traitsIcESaIcEEESt4pairIKS5_iESt10_Select1stIS8_ESt4lessIS5_ESaIS8_EE8_M_eraseEPSt13_Rb_tree_nodeIS8_E,"axG",@progbits,_ZNSt8_Rb_treeINSt7__cxx1112basic_stringIcSt11char_traitsIcESaIcEEESt4pairIKS5_iESt10_Select1stIS8_ESt4lessIS5_ESaIS8_EE8_M_eraseEPSt13_Rb_tree_nodeIS8_E,comdat
	.align 2
	.p2align 4,,15
	.weak	_ZNSt8_Rb_treeINSt7__cxx1112basic_stringIcSt11char_traitsIcESaIcEEESt4pairIKS5_iESt10_Select1stIS8_ESt4lessIS5_ESaIS8_EE8_M_eraseEPSt13_Rb_tree_nodeIS8_E
	.type	_ZNSt8_Rb_treeINSt7__cxx1112basic_stringIcSt11char_traitsIcESaIcEEESt4pairIKS5_iESt10_Select1stIS8_ESt4lessIS5_ESaIS8_EE8_M_eraseEPSt13_Rb_tree_nodeIS8_E, @function
_ZNSt8_Rb_treeINSt7__cxx1112basic_stringIcSt11char_traitsIcESaIcEEESt4pairIKS5_iESt10_Select1stIS8_ESt4lessIS5_ESaIS8_EE8_M_eraseEPSt13_Rb_tree_nodeIS8_E:
.LFB3803:
	.cfi_startproc
	push	ebp
	.cfi_def_cfa_offset 8
	.cfi_offset 5, -8
	push	edi
	.cfi_def_cfa_offset 12
	.cfi_offset 7, -12
	push	esi
	.cfi_def_cfa_offset 16
	.cfi_offset 6, -16
	push	ebx
	.cfi_def_cfa_offset 20
	.cfi_offset 3, -20
	call	__x86.get_pc_thunk.bx
	add	ebx, OFFSET FLAT:_GLOBAL_OFFSET_TABLE_
	sub	esp, 12
	.cfi_def_cfa_offset 32
	mov	esi, DWORD PTR 36[esp]
	mov	ebp, DWORD PTR 32[esp]
	test	esi, esi
	je	.L774
.L778:
	sub	esp, 8
	.cfi_def_cfa_offset 40
	push	DWORD PTR 12[esi]
	.cfi_def_cfa_offset 44
	push	ebp
	.cfi_def_cfa_offset 48
	call	_ZNSt8_Rb_treeINSt7__cxx1112basic_stringIcSt11char_traitsIcESaIcEEESt4pairIKS5_iESt10_Select1stIS8_ESt4lessIS5_ESaIS8_EE8_M_eraseEPSt13_Rb_tree_nodeIS8_E
	mov	eax, DWORD PTR 16[esi]
	lea	edx, 24[esi]
	mov	edi, DWORD PTR 8[esi]
	add	esp, 16
	.cfi_def_cfa_offset 32
	cmp	eax, edx
	je	.L776
	sub	esp, 12
	.cfi_def_cfa_offset 44
	push	eax
	.cfi_def_cfa_offset 48
	call	_ZdlPv@PLT
	mov	DWORD PTR [esp], esi
	call	_ZdlPv@PLT
	add	esp, 16
	.cfi_def_cfa_offset 32
	test	edi, edi
	je	.L774
.L777:
	mov	esi, edi
	jmp	.L778
	.p2align 4,,10
	.p2align 3
.L776:
	sub	esp, 12
	.cfi_def_cfa_offset 44
	push	esi
	.cfi_def_cfa_offset 48
	call	_ZdlPv@PLT
	add	esp, 16
	.cfi_def_cfa_offset 32
	test	edi, edi
	jne	.L777
.L774:
	add	esp, 12
	.cfi_def_cfa_offset 20
	pop	ebx
	.cfi_restore 3
	.cfi_def_cfa_offset 16
	pop	esi
	.cfi_restore 6
	.cfi_def_cfa_offset 12
	pop	edi
	.cfi_restore 7
	.cfi_def_cfa_offset 8
	pop	ebp
	.cfi_restore 5
	.cfi_def_cfa_offset 4
	ret
	.cfi_endproc
.LFE3803:
	.size	_ZNSt8_Rb_treeINSt7__cxx1112basic_stringIcSt11char_traitsIcESaIcEEESt4pairIKS5_iESt10_Select1stIS8_ESt4lessIS5_ESaIS8_EE8_M_eraseEPSt13_Rb_tree_nodeIS8_E, .-_ZNSt8_Rb_treeINSt7__cxx1112basic_stringIcSt11char_traitsIcESaIcEEESt4pairIKS5_iESt10_Select1stIS8_ESt4lessIS5_ESaIS8_EE8_M_eraseEPSt13_Rb_tree_nodeIS8_E
	.section	.text._ZNSt3mapINSt7__cxx1112basic_stringIcSt11char_traitsIcESaIcEEEiSt4lessIS5_ESaISt4pairIKS5_iEEED2Ev,"axG",@progbits,_ZNSt3mapINSt7__cxx1112basic_stringIcSt11char_traitsIcESaIcEEEiSt4lessIS5_ESaISt4pairIKS5_iEEED5Ev,comdat
	.align 2
	.p2align 4,,15
	.weak	_ZNSt3mapINSt7__cxx1112basic_stringIcSt11char_traitsIcESaIcEEEiSt4lessIS5_ESaISt4pairIKS5_iEEED2Ev
	.type	_ZNSt3mapINSt7__cxx1112basic_stringIcSt11char_traitsIcESaIcEEEiSt4lessIS5_ESaISt4pairIKS5_iEEED2Ev, @function
_ZNSt3mapINSt7__cxx1112basic_stringIcSt11char_traitsIcESaIcEEEiSt4lessIS5_ESaISt4pairIKS5_iEEED2Ev:
.LFB4451:
	.cfi_startproc
	push	ebp
	.cfi_def_cfa_offset 8
	.cfi_offset 5, -8
	push	edi
	.cfi_def_cfa_offset 12
	.cfi_offset 7, -12
	push	esi
	.cfi_def_cfa_offset 16
	.cfi_offset 6, -16
	push	ebx
	.cfi_def_cfa_offset 20
	.cfi_offset 3, -20
	call	__x86.get_pc_thunk.bx
	add	ebx, OFFSET FLAT:_GLOBAL_OFFSET_TABLE_
	sub	esp, 12
	.cfi_def_cfa_offset 32
	mov	ebp, DWORD PTR 32[esp]
	mov	esi, DWORD PTR 8[ebp]
	test	esi, esi
	je	.L789
.L793:
	sub	esp, 8
	.cfi_def_cfa_offset 40
	push	DWORD PTR 12[esi]
	.cfi_def_cfa_offset 44
	push	ebp
	.cfi_def_cfa_offset 48
	call	_ZNSt8_Rb_treeINSt7__cxx1112basic_stringIcSt11char_traitsIcESaIcEEESt4pairIKS5_iESt10_Select1stIS8_ESt4lessIS5_ESaIS8_EE8_M_eraseEPSt13_Rb_tree_nodeIS8_E
	mov	eax, DWORD PTR 16[esi]
	lea	edx, 24[esi]
	mov	edi, DWORD PTR 8[esi]
	add	esp, 16
	.cfi_def_cfa_offset 32
	cmp	eax, edx
	je	.L791
	sub	esp, 12
	.cfi_def_cfa_offset 44
	push	eax
	.cfi_def_cfa_offset 48
	call	_ZdlPv@PLT
	mov	DWORD PTR [esp], esi
	call	_ZdlPv@PLT
	add	esp, 16
	.cfi_def_cfa_offset 32
	test	edi, edi
	je	.L789
.L792:
	mov	esi, edi
	jmp	.L793
	.p2align 4,,10
	.p2align 3
.L791:
	sub	esp, 12
	.cfi_def_cfa_offset 44
	push	esi
	.cfi_def_cfa_offset 48
	call	_ZdlPv@PLT
	add	esp, 16
	.cfi_def_cfa_offset 32
	test	edi, edi
	jne	.L792
.L789:
	add	esp, 12
	.cfi_def_cfa_offset 20
	pop	ebx
	.cfi_restore 3
	.cfi_def_cfa_offset 16
	pop	esi
	.cfi_restore 6
	.cfi_def_cfa_offset 12
	pop	edi
	.cfi_restore 7
	.cfi_def_cfa_offset 8
	pop	ebp
	.cfi_restore 5
	.cfi_def_cfa_offset 4
	ret
	.cfi_endproc
.LFE4451:
	.size	_ZNSt3mapINSt7__cxx1112basic_stringIcSt11char_traitsIcESaIcEEEiSt4lessIS5_ESaISt4pairIKS5_iEEED2Ev, .-_ZNSt3mapINSt7__cxx1112basic_stringIcSt11char_traitsIcESaIcEEEiSt4lessIS5_ESaISt4pairIKS5_iEEED2Ev
	.weak	_ZNSt3mapINSt7__cxx1112basic_stringIcSt11char_traitsIcESaIcEEEiSt4lessIS5_ESaISt4pairIKS5_iEEED1Ev
	.set	_ZNSt3mapINSt7__cxx1112basic_stringIcSt11char_traitsIcESaIcEEEiSt4lessIS5_ESaISt4pairIKS5_iEEED1Ev,_ZNSt3mapINSt7__cxx1112basic_stringIcSt11char_traitsIcESaIcEEEiSt4lessIS5_ESaISt4pairIKS5_iEEED2Ev
	.section	.text._ZNSt8_Rb_treeINSt7__cxx1112basic_stringIcSt11char_traitsIcESaIcEEESt4pairIKS5_bESt10_Select1stIS8_ESt4lessIS5_ESaIS8_EE4findERS7_,"axG",@progbits,_ZNSt8_Rb_treeINSt7__cxx1112basic_stringIcSt11char_traitsIcESaIcEEESt4pairIKS5_bESt10_Select1stIS8_ESt4lessIS5_ESaIS8_EE4findERS7_,comdat
	.align 2
	.p2align 4,,15
	.weak	_ZNSt8_Rb_treeINSt7__cxx1112basic_stringIcSt11char_traitsIcESaIcEEESt4pairIKS5_bESt10_Select1stIS8_ESt4lessIS5_ESaIS8_EE4findERS7_
	.type	_ZNSt8_Rb_treeINSt7__cxx1112basic_stringIcSt11char_traitsIcESaIcEEESt4pairIKS5_bESt10_Select1stIS8_ESt4lessIS5_ESaIS8_EE4findERS7_, @function
_ZNSt8_Rb_treeINSt7__cxx1112basic_stringIcSt11char_traitsIcESaIcEEESt4pairIKS5_bESt10_Select1stIS8_ESt4lessIS5_ESaIS8_EE4findERS7_:
.LFB3831:
	.cfi_startproc
	push	ebp
	.cfi_def_cfa_offset 8
	.cfi_offset 5, -8
	push	edi
	.cfi_def_cfa_offset 12
	.cfi_offset 7, -12
	push	esi
	.cfi_def_cfa_offset 16
	.cfi_offset 6, -16
	push	ebx
	.cfi_def_cfa_offset 20
	.cfi_offset 3, -20
	call	__x86.get_pc_thunk.bx
	add	ebx, OFFSET FLAT:_GLOBAL_OFFSET_TABLE_
	sub	esp, 28
	.cfi_def_cfa_offset 48
	mov	eax, DWORD PTR 52[esp]
	mov	edx, DWORD PTR 56[esp]
	mov	esi, DWORD PTR 8[eax]
	lea	ecx, 4[eax]
	mov	DWORD PTR 12[esp], ecx
	test	esi, esi
	je	.L813
	mov	eax, DWORD PTR [edx]
	mov	ebp, DWORD PTR 4[edx]
	mov	DWORD PTR 8[esp], eax
	mov	eax, DWORD PTR 12[esp]
	mov	DWORD PTR 4[esp], eax
	jmp	.L807
	.p2align 4,,10
	.p2align 3
.L823:
	mov	DWORD PTR 4[esp], esi
	mov	esi, DWORD PTR 8[esi]
	test	esi, esi
	je	.L808
.L807:
	mov	edi, DWORD PTR 20[esi]
	mov	eax, ebp
	cmp	edi, ebp
	cmovbe	eax, edi
	test	eax, eax
	je	.L809
	sub	esp, 4
	.cfi_def_cfa_offset 52
	push	eax
	.cfi_def_cfa_offset 56
	push	DWORD PTR 16[esp]
	.cfi_def_cfa_offset 60
	push	DWORD PTR 16[esi]
	.cfi_def_cfa_offset 64
	call	memcmp@PLT
	add	esp, 16
	.cfi_def_cfa_offset 48
	test	eax, eax
	jne	.L810
.L809:
	mov	eax, edi
	sub	eax, ebp
.L810:
	test	eax, eax
	jns	.L823
	mov	esi, DWORD PTR 12[esi]
	test	esi, esi
	jne	.L807
.L808:
	mov	ecx, DWORD PTR 4[esp]
	cmp	DWORD PTR 12[esp], ecx
	je	.L813
	mov	esi, DWORD PTR 20[ecx]
	cmp	ebp, esi
	mov	eax, esi
	cmovbe	eax, ebp
	test	eax, eax
	je	.L814
	sub	esp, 4
	.cfi_def_cfa_offset 52
	push	eax
	.cfi_def_cfa_offset 56
	push	DWORD PTR 16[ecx]
	.cfi_def_cfa_offset 60
	push	DWORD PTR 20[esp]
	.cfi_def_cfa_offset 64
	call	memcmp@PLT
	add	esp, 16
	.cfi_def_cfa_offset 48
	test	eax, eax
	jne	.L815
.L814:
	mov	eax, ebp
	sub	eax, esi
.L815:
	test	eax, eax
	js	.L813
	mov	eax, DWORD PTR 48[esp]
	mov	edx, DWORD PTR 4[esp]
	mov	DWORD PTR [eax], edx
	add	esp, 28
	.cfi_remember_state
	.cfi_def_cfa_offset 20
	pop	ebx
	.cfi_restore 3
	.cfi_def_cfa_offset 16
	pop	esi
	.cfi_restore 6
	.cfi_def_cfa_offset 12
	pop	edi
	.cfi_restore 7
	.cfi_def_cfa_offset 8
	pop	ebp
	.cfi_restore 5
	.cfi_def_cfa_offset 4
	ret	4
	.p2align 4,,10
	.p2align 3
.L813:
	.cfi_restore_state
	mov	eax, DWORD PTR 48[esp]
	mov	edx, DWORD PTR 12[esp]
	mov	DWORD PTR [eax], edx
	add	esp, 28
	.cfi_def_cfa_offset 20
	pop	ebx
	.cfi_restore 3
	.cfi_def_cfa_offset 16
	pop	esi
	.cfi_restore 6
	.cfi_def_cfa_offset 12
	pop	edi
	.cfi_restore 7
	.cfi_def_cfa_offset 8
	pop	ebp
	.cfi_restore 5
	.cfi_def_cfa_offset 4
	ret	4
	.cfi_endproc
.LFE3831:
	.size	_ZNSt8_Rb_treeINSt7__cxx1112basic_stringIcSt11char_traitsIcESaIcEEESt4pairIKS5_bESt10_Select1stIS8_ESt4lessIS5_ESaIS8_EE4findERS7_, .-_ZNSt8_Rb_treeINSt7__cxx1112basic_stringIcSt11char_traitsIcESaIcEEESt4pairIKS5_bESt10_Select1stIS8_ESt4lessIS5_ESaIS8_EE4findERS7_
	.section	.text.unlikely
.LCOLDB41:
	.text
.LHOTB41:
	.p2align 4,,15
	.globl	_Z12ifVarIsLocalNSt7__cxx1112basic_stringIcSt11char_traitsIcESaIcEEEb
	.type	_Z12ifVarIsLocalNSt7__cxx1112basic_stringIcSt11char_traitsIcESaIcEEEb, @function
_Z12ifVarIsLocalNSt7__cxx1112basic_stringIcSt11char_traitsIcESaIcEEEb:
.LFB3102:
	.cfi_startproc
	.cfi_personality 0x9b,DW.ref.__gxx_personality_v0
	.cfi_lsda 0x1b,.LLSDA3102
	push	ebp
	.cfi_def_cfa_offset 8
	.cfi_offset 5, -8
	mov	ebp, esp
	.cfi_def_cfa_register 5
	push	edi
	push	esi
	.cfi_offset 7, -12
	.cfi_offset 6, -16
	call	__x86.get_pc_thunk.si
	add	esi, OFFSET FLAT:_GLOBAL_OFFSET_TABLE_
	push	ebx
	sub	esp, 132
	.cfi_offset 3, -20
	mov	eax, DWORD PTR 8[ebp]
	mov	DWORD PTR -120[ebp], eax
	mov	eax, DWORD PTR 12[ebp]
	mov	ebx, esi
	mov	DWORD PTR -116[ebp], eax
	mov	eax, DWORD PTR gs:20
	mov	DWORD PTR -28[ebp], eax
	xor	eax, eax
	lea	eax, -100[ebp]
	mov	DWORD PTR -96[ebp], 0
	mov	DWORD PTR -124[ebp], eax
	mov	edi, eax
	lea	eax, -92[ebp]
	mov	DWORD PTR -112[ebp], eax
	mov	DWORD PTR -100[ebp], eax
	lea	eax, .LC2@GOTOFF[esi]
	push	eax
	mov	eax, DWORD PTR _Z22LocalizedVariableNamesB5cxx11@GOTOFF[esi+4]
	mov	BYTE PTR -92[ebp], 0
	sub	eax, 24
	push	eax
	call	_ZNKSt7__cxx1112basic_stringIcSt11char_traitsIcESaIcEE7compareEPKc@PLT
	add	esp, 16
	test	eax, eax
	jne	.L825
	mov	eax, DWORD PTR _Z9classNameB5cxx11@GOTOFF[esi+4]
	sub	esp, 8
	sub	eax, 24
	push	eax
	push	edi
.LEHB58:
	.cfi_escape 0x2e,0x10
	call	_ZNSt7__cxx1112basic_stringIcSt11char_traitsIcESaIcEE9_M_assignERKS4_@PLT
.L850:
	add	esp, 16
.L826:
	cmp	BYTE PTR -116[ebp], 0
	je	.L834
	sub	esp, 4
	lea	eax, -108[ebp]
	lea	edx, _Z7StringsB5cxx11@GOTOFF[esi]
	push	DWORD PTR -120[ebp]
	push	edx
	push	eax
	call	_ZNSt8_Rb_treeINSt7__cxx1112basic_stringIcSt11char_traitsIcESaIcEEESt4pairIKS5_bESt10_Select1stIS8_ESt4lessIS5_ESaIS8_EE4findERS7_
	mov	eax, DWORD PTR -108[ebp]
	add	esp, 12
	movzx	eax, BYTE PTR 40[eax]
	mov	edi, eax
.L835:
	mov	eax, DWORD PTR -100[ebp]
	cmp	eax, DWORD PTR -112[ebp]
	je	.L824
	sub	esp, 12
	mov	ebx, esi
	push	eax
	call	_ZdlPv@PLT
	add	esp, 16
.L824:
	mov	eax, edi
	mov	edi, DWORD PTR -28[ebp]
	xor	edi, DWORD PTR gs:20
	jne	.L851
	lea	esp, -12[ebp]
	pop	ebx
	.cfi_remember_state
	.cfi_restore 3
	pop	esi
	.cfi_restore 6
	pop	edi
	.cfi_restore 7
	pop	ebp
	.cfi_restore 5
	.cfi_def_cfa 4, 4
	ret
	.p2align 4,,10
	.p2align 3
.L834:
	.cfi_restore_state
	sub	esp, 4
	lea	ebx, -52[ebp]
	push	DWORD PTR -120[ebp]
	push	DWORD PTR -124[ebp]
	push	ebx
	call	_ZStplIcSt11char_traitsIcESaIcEENSt7__cxx1112basic_stringIT_T0_T1_EERKS8_SA_
	pop	eax
	lea	eax, -108[ebp]
	pop	edx
	push	ebx
	lea	edx, _Z9variablesB5cxx11@GOTOFF[esi]
	push	edx
	push	eax
	call	_ZNSt8_Rb_treeINSt7__cxx1112basic_stringIcSt11char_traitsIcESaIcEEESt4pairIKS5_bESt10_Select1stIS8_ESt4lessIS5_ESaIS8_EE4findERS7_
	mov	eax, DWORD PTR -108[ebp]
	lea	edx, -44[ebp]
	add	esp, 12
	mov	edi, eax
	mov	eax, DWORD PTR -52[ebp]
	cmp	eax, edx
	je	.L836
	sub	esp, 12
	mov	ebx, esi
	push	eax
	call	_ZdlPv@PLT
	add	esp, 16
.L836:
	lea	eax, _Z9variablesB5cxx11@GOTOFF[esi+4]
	cmp	edi, eax
	je	.L841
	movzx	eax, BYTE PTR 40[edi]
	xor	eax, 1
	mov	edi, eax
	jmp	.L835
	.p2align 4,,10
	.p2align 3
.L825:
	mov	eax, DWORD PTR _Z22LocalizedVariableNamesB5cxx11@GOTOFF[esi+4]
	sub	esp, 4
	lea	edx, -76[ebp]
	sub	eax, 24
	push	eax
	mov	eax, DWORD PTR _Z9classNameB5cxx11@GOTOFF[esi+4]
	sub	eax, 24
	push	eax
	push	edx
	call	_ZStplIcSt11char_traitsIcESaIcEENSt7__cxx1112basic_stringIT_T0_T1_EERKS8_SA_
.LEHE58:
	mov	edx, DWORD PTR -76[ebp]
	lea	ecx, -68[ebp]
	add	esp, 12
	mov	eax, DWORD PTR -100[ebp]
	mov	ebx, DWORD PTR -72[ebp]
	cmp	edx, ecx
	je	.L852
	mov	edi, DWORD PTR -68[ebp]
	mov	DWORD PTR -128[ebp], edi
	cmp	eax, DWORD PTR -112[ebp]
	je	.L853
	mov	DWORD PTR -100[ebp], edx
	mov	edx, DWORD PTR -128[ebp]
	mov	edi, DWORD PTR -92[ebp]
	mov	DWORD PTR -96[ebp], ebx
	mov	DWORD PTR -92[ebp], edx
	test	eax, eax
	je	.L832
	mov	DWORD PTR -76[ebp], eax
	mov	DWORD PTR -68[ebp], edi
.L830:
	mov	DWORD PTR -72[ebp], 0
	mov	BYTE PTR [eax], 0
	mov	eax, DWORD PTR -76[ebp]
	cmp	eax, ecx
	je	.L826
	sub	esp, 12
	mov	ebx, esi
	push	eax
	call	_ZdlPv@PLT
	jmp	.L850
	.p2align 4,,10
	.p2align 3
.L852:
	test	ebx, ebx
	je	.L828
	cmp	ebx, 1
	je	.L854
	sub	esp, 4
	mov	DWORD PTR -128[ebp], ecx
	push	ebx
	mov	ebx, esi
	push	ecx
	push	eax
	call	memcpy@PLT
	mov	ebx, DWORD PTR -72[ebp]
	mov	eax, DWORD PTR -100[ebp]
	add	esp, 16
	mov	ecx, DWORD PTR -128[ebp]
.L828:
	mov	DWORD PTR -96[ebp], ebx
	mov	BYTE PTR [eax+ebx], 0
	mov	eax, DWORD PTR -76[ebp]
	jmp	.L830
	.p2align 4,,10
	.p2align 3
.L853:
	mov	DWORD PTR -100[ebp], edx
	mov	DWORD PTR -96[ebp], ebx
	mov	DWORD PTR -92[ebp], edi
.L832:
	mov	DWORD PTR -76[ebp], ecx
	lea	ecx, -68[ebp]
	mov	eax, ecx
	jmp	.L830
	.p2align 4,,10
	.p2align 3
.L841:
	movzx	eax, BYTE PTR -116[ebp]
	mov	edi, eax
	jmp	.L835
	.p2align 4,,10
	.p2align 3
.L854:
	movzx	edx, BYTE PTR -68[ebp]
	mov	BYTE PTR [eax], dl
	mov	ebx, DWORD PTR -72[ebp]
	mov	eax, DWORD PTR -100[ebp]
	jmp	.L828
.L851:
	call	__stack_chk_fail_local
.L842:
	mov	edi, eax
	jmp	.L838
	.section	.gcc_except_table
.LLSDA3102:
	.byte	0xff
	.byte	0xff
	.byte	0x1
	.uleb128 .LLSDACSE3102-.LLSDACSB3102
.LLSDACSB3102:
	.uleb128 .LEHB58-.LFB3102
	.uleb128 .LEHE58-.LEHB58
	.uleb128 .L842-.LFB3102
	.uleb128 0
.LLSDACSE3102:
	.text
	.cfi_endproc
	.section	.text.unlikely
	.cfi_startproc
	.cfi_personality 0x9b,DW.ref.__gxx_personality_v0
	.cfi_lsda 0x1b,.LLSDAC3102
	.type	_Z12ifVarIsLocalNSt7__cxx1112basic_stringIcSt11char_traitsIcESaIcEEEb.cold.198, @function
_Z12ifVarIsLocalNSt7__cxx1112basic_stringIcSt11char_traitsIcESaIcEEEb.cold.198:
.LFSB3102:
.L838:
	.cfi_def_cfa 5, 8
	.cfi_offset 3, -20
	.cfi_offset 5, -8
	.cfi_offset 6, -16
	.cfi_offset 7, -12
	mov	edx, DWORD PTR -100[ebp]
	cmp	edx, DWORD PTR -112[ebp]
	je	.L839
	sub	esp, 12
	mov	ebx, esi
	push	edx
	call	_ZdlPv@PLT
	add	esp, 16
.L839:
	sub	esp, 12
	mov	ebx, esi
	push	edi
.LEHB59:
	call	_Unwind_Resume@PLT
.LEHE59:
	.cfi_endproc
.LFE3102:
	.section	.gcc_except_table
.LLSDAC3102:
	.byte	0xff
	.byte	0xff
	.byte	0x1
	.uleb128 .LLSDACSEC3102-.LLSDACSBC3102
.LLSDACSBC3102:
	.uleb128 .LEHB59-.LCOLDB41
	.uleb128 .LEHE59-.LEHB59
	.uleb128 0
	.uleb128 0
.LLSDACSEC3102:
	.section	.text.unlikely
	.text
	.size	_Z12ifVarIsLocalNSt7__cxx1112basic_stringIcSt11char_traitsIcESaIcEEEb, .-_Z12ifVarIsLocalNSt7__cxx1112basic_stringIcSt11char_traitsIcESaIcEEEb
	.section	.text.unlikely
	.size	_Z12ifVarIsLocalNSt7__cxx1112basic_stringIcSt11char_traitsIcESaIcEEEb.cold.198, .-_Z12ifVarIsLocalNSt7__cxx1112basic_stringIcSt11char_traitsIcESaIcEEEb.cold.198
.LCOLDE41:
	.text
.LHOTE41:
	.section	.text.unlikely
.LCOLDB42:
	.text
.LHOTB42:
	.p2align 4,,15
	.globl	_Z8autoNameNSt7__cxx1112basic_stringIcSt11char_traitsIcESaIcEEEb
	.type	_Z8autoNameNSt7__cxx1112basic_stringIcSt11char_traitsIcESaIcEEEb, @function
_Z8autoNameNSt7__cxx1112basic_stringIcSt11char_traitsIcESaIcEEEb:
.LFB3106:
	.cfi_startproc
	.cfi_personality 0x9b,DW.ref.__gxx_personality_v0
	.cfi_lsda 0x1b,.LLSDA3106
	call	__x86.get_pc_thunk.ax
	add	eax, OFFSET FLAT:_GLOBAL_OFFSET_TABLE_
	push	ebp
	.cfi_def_cfa_offset 8
	.cfi_offset 5, -8
	mov	ebp, esp
	.cfi_def_cfa_register 5
	push	edi
	push	esi
	push	ebx
	sub	esp, 76
	.cfi_offset 7, -12
	.cfi_offset 6, -16
	.cfi_offset 3, -20
	mov	esi, DWORD PTR 12[ebp]
	mov	edi, DWORD PTR 8[ebp]
	mov	DWORD PTR -60[ebp], eax
	mov	ecx, DWORD PTR [esi]
	mov	edx, DWORD PTR 4[esi]
	mov	eax, DWORD PTR gs:20
	mov	DWORD PTR -28[ebp], eax
	xor	eax, eax
	movzx	eax, BYTE PTR 16[ebp]
	mov	DWORD PTR -72[ebp], eax
	lea	eax, -44[ebp]
	mov	DWORD PTR -64[ebp], eax
	mov	DWORD PTR -52[ebp], eax
	mov	eax, ecx
	add	eax, edx
	je	.L856
	test	ecx, ecx
	je	.L887
.L856:
	mov	DWORD PTR -56[ebp], edx
	cmp	edx, 15
	ja	.L888
	cmp	edx, 1
	jne	.L859
	movzx	eax, BYTE PTR [ecx]
	lea	ecx, -52[ebp]
	mov	DWORD PTR -68[ebp], ecx
	mov	BYTE PTR -44[ebp], al
	mov	eax, DWORD PTR -64[ebp]
.L860:
	sub	esp, 8
	mov	DWORD PTR -48[ebp], edx
	mov	BYTE PTR [eax+edx], 0
	push	DWORD PTR -72[ebp]
	push	DWORD PTR -68[ebp]
.LEHB60:
	.cfi_escape 0x2e,0x10
	call	_Z12ifVarIsLocalNSt7__cxx1112basic_stringIcSt11char_traitsIcESaIcEEEb
.LEHE60:
	add	esp, 16
	mov	edx, DWORD PTR -52[ebp]
	cmp	edx, DWORD PTR -64[ebp]
	je	.L861
	sub	esp, 12
	mov	ebx, DWORD PTR -60[ebp]
	mov	BYTE PTR -72[ebp], al
	push	edx
	call	_ZdlPv@PLT
	movzx	eax, BYTE PTR -72[ebp]
	add	esp, 16
.L861:
	test	al, al
	je	.L862
	mov	ebx, DWORD PTR -60[ebp]
	sub	esp, 8
	lea	eax, .LC2@GOTOFF[ebx]
	push	eax
	mov	eax, DWORD PTR _Z22LocalizedVariableNamesB5cxx11@GOTOFF[ebx+4]
	sub	eax, 24
	push	eax
	call	_ZNKSt7__cxx1112basic_stringIcSt11char_traitsIcESaIcEE7compareEPKc@PLT
	add	esp, 16
	test	eax, eax
	jne	.L863
	mov	ebx, DWORD PTR -60[ebp]
	sub	esp, 4
	push	esi
	mov	eax, DWORD PTR _Z9classNameB5cxx11@GOTOFF[ebx+4]
	sub	eax, 24
	push	eax
	push	edi
.LEHB61:
	call	_ZStplIcSt11char_traitsIcESaIcEENSt7__cxx1112basic_stringIT_T0_T1_EERKS8_SA_
	add	esp, 12
.L855:
	mov	eax, edi
	mov	edi, DWORD PTR -28[ebp]
	xor	edi, DWORD PTR gs:20
	jne	.L889
	lea	esp, -12[ebp]
	pop	ebx
	.cfi_remember_state
	.cfi_restore 3
	pop	esi
	.cfi_restore 6
	pop	edi
	.cfi_restore 7
	pop	ebp
	.cfi_restore 5
	.cfi_def_cfa 4, 4
	ret	4
	.p2align 4,,10
	.p2align 3
.L859:
	.cfi_restore_state
	mov	eax, DWORD PTR -64[ebp]
	test	edx, edx
	jne	.L890
	lea	ecx, -52[ebp]
	mov	DWORD PTR -68[ebp], ecx
	jmp	.L860
	.p2align 4,,10
	.p2align 3
.L862:
	mov	edx, DWORD PTR [esi]
	lea	ecx, 8[edi]
	lea	eax, 8[esi]
	mov	DWORD PTR [edi], ecx
	cmp	edx, eax
	je	.L891
	mov	DWORD PTR [edi], edx
	mov	edx, DWORD PTR 8[esi]
	mov	DWORD PTR 8[edi], edx
.L869:
	mov	edx, DWORD PTR 4[esi]
	mov	DWORD PTR [esi], eax
	mov	DWORD PTR 4[esi], 0
	mov	DWORD PTR 4[edi], edx
	mov	BYTE PTR 8[esi], 0
	jmp	.L855
	.p2align 4,,10
	.p2align 3
.L888:
	sub	esp, 4
	lea	eax, -56[ebp]
	mov	ebx, DWORD PTR -60[ebp]
	mov	DWORD PTR -80[ebp], ecx
	push	0
	push	eax
	lea	eax, -52[ebp]
	push	eax
	mov	DWORD PTR -76[ebp], edx
	mov	DWORD PTR -68[ebp], eax
	call	_ZNSt7__cxx1112basic_stringIcSt11char_traitsIcESaIcEE9_M_createERjj@PLT
	mov	ebx, DWORD PTR -56[ebp]
	mov	edx, DWORD PTR -76[ebp]
	add	esp, 16
	mov	DWORD PTR -52[ebp], eax
	mov	ecx, DWORD PTR -80[ebp]
	mov	DWORD PTR -44[ebp], ebx
.L858:
	sub	esp, 4
	mov	ebx, DWORD PTR -60[ebp]
	push	edx
	push	ecx
	push	eax
	call	memcpy@PLT
	mov	edx, DWORD PTR -56[ebp]
	mov	eax, DWORD PTR -52[ebp]
	add	esp, 16
	jmp	.L860
	.p2align 4,,10
	.p2align 3
.L863:
	mov	ebx, DWORD PTR -60[ebp]
	sub	esp, 4
	mov	eax, DWORD PTR _Z22LocalizedVariableNamesB5cxx11@GOTOFF[ebx+4]
	sub	eax, 24
	push	eax
	mov	eax, DWORD PTR _Z9classNameB5cxx11@GOTOFF[ebx+4]
	sub	eax, 24
	push	eax
	push	DWORD PTR -68[ebp]
	call	_ZStplIcSt11char_traitsIcESaIcEENSt7__cxx1112basic_stringIT_T0_T1_EERKS8_SA_
.LEHE61:
	pop	eax
	pop	edx
	push	DWORD PTR 4[esi]
	push	DWORD PTR [esi]
	push	DWORD PTR -68[ebp]
.LEHB62:
	call	_ZNSt7__cxx1112basic_stringIcSt11char_traitsIcESaIcEE9_M_appendEPKcj@PLT
.LEHE62:
	lea	esi, 8[edi]
	lea	edx, 8[eax]
	add	esp, 16
	mov	DWORD PTR [edi], esi
	mov	ecx, DWORD PTR [eax]
	cmp	ecx, edx
	je	.L892
	mov	DWORD PTR [edi], ecx
	mov	ecx, DWORD PTR 8[eax]
	mov	DWORD PTR 8[edi], ecx
.L866:
	mov	ecx, DWORD PTR 4[eax]
	mov	DWORD PTR 4[edi], ecx
	mov	DWORD PTR [eax], edx
	mov	DWORD PTR 4[eax], 0
	mov	BYTE PTR 8[eax], 0
	mov	eax, DWORD PTR -52[ebp]
	cmp	eax, DWORD PTR -64[ebp]
	je	.L855
	sub	esp, 12
	mov	ebx, DWORD PTR -60[ebp]
	push	eax
	call	_ZdlPv@PLT
	add	esp, 16
	jmp	.L855
	.p2align 4,,10
	.p2align 3
.L891:
	mov	edx, DWORD PTR 8[esi]
	mov	DWORD PTR 8[edi], edx
	mov	edx, DWORD PTR 4[eax]
	mov	DWORD PTR 12[edi], edx
	mov	edx, DWORD PTR 8[eax]
	mov	DWORD PTR 16[edi], edx
	mov	edx, DWORD PTR 12[eax]
	mov	DWORD PTR 20[edi], edx
	jmp	.L869
.L887:
	mov	ebx, DWORD PTR -60[ebp]
	sub	esp, 12
	lea	eax, .LC0@GOTOFF[ebx]
	push	eax
.LEHB63:
	call	_ZSt19__throw_logic_errorPKc@PLT
.LEHE63:
	.p2align 4,,10
	.p2align 3
.L892:
	mov	ecx, DWORD PTR 8[eax]
	mov	DWORD PTR 8[edi], ecx
	mov	ecx, DWORD PTR 4[edx]
	mov	DWORD PTR 12[edi], ecx
	mov	ecx, DWORD PTR 8[edx]
	mov	DWORD PTR 16[edi], ecx
	mov	ecx, DWORD PTR 12[edx]
	mov	DWORD PTR 20[edi], ecx
	jmp	.L866
.L889:
	call	__stack_chk_fail_local
.L890:
	lea	ebx, -52[ebp]
	mov	DWORD PTR -68[ebp], ebx
	jmp	.L858
.L877:
	mov	esi, eax
	jmp	.L872
.L876:
	mov	esi, eax
	jmp	.L872
	.section	.gcc_except_table
.LLSDA3106:
	.byte	0xff
	.byte	0xff
	.byte	0x1
	.uleb128 .LLSDACSE3106-.LLSDACSB3106
.LLSDACSB3106:
	.uleb128 .LEHB60-.LFB3106
	.uleb128 .LEHE60-.LEHB60
	.uleb128 .L876-.LFB3106
	.uleb128 0
	.uleb128 .LEHB61-.LFB3106
	.uleb128 .LEHE61-.LEHB61
	.uleb128 0
	.uleb128 0
	.uleb128 .LEHB62-.LFB3106
	.uleb128 .LEHE62-.LEHB62
	.uleb128 .L877-.LFB3106
	.uleb128 0
	.uleb128 .LEHB63-.LFB3106
	.uleb128 .LEHE63-.LEHB63
	.uleb128 0
	.uleb128 0
.LLSDACSE3106:
	.text
	.cfi_endproc
	.section	.text.unlikely
	.cfi_startproc
	.cfi_personality 0x9b,DW.ref.__gxx_personality_v0
	.cfi_lsda 0x1b,.LLSDAC3106
	.type	_Z8autoNameNSt7__cxx1112basic_stringIcSt11char_traitsIcESaIcEEEb.cold.199, @function
_Z8autoNameNSt7__cxx1112basic_stringIcSt11char_traitsIcESaIcEEEb.cold.199:
.LFSB3106:
.L872:
	.cfi_def_cfa 5, 8
	.cfi_offset 3, -20
	.cfi_offset 5, -8
	.cfi_offset 6, -16
	.cfi_offset 7, -12
	mov	edx, DWORD PTR -52[ebp]
	cmp	edx, DWORD PTR -64[ebp]
	je	.L873
	sub	esp, 12
	mov	ebx, DWORD PTR -60[ebp]
	push	edx
	call	_ZdlPv@PLT
	add	esp, 16
.L873:
	sub	esp, 12
	mov	ebx, DWORD PTR -60[ebp]
	push	esi
.LEHB64:
	call	_Unwind_Resume@PLT
.LEHE64:
	.cfi_endproc
.LFE3106:
	.section	.gcc_except_table
.LLSDAC3106:
	.byte	0xff
	.byte	0xff
	.byte	0x1
	.uleb128 .LLSDACSEC3106-.LLSDACSBC3106
.LLSDACSBC3106:
	.uleb128 .LEHB64-.LCOLDB42
	.uleb128 .LEHE64-.LEHB64
	.uleb128 0
	.uleb128 0
.LLSDACSEC3106:
	.section	.text.unlikely
	.text
	.size	_Z8autoNameNSt7__cxx1112basic_stringIcSt11char_traitsIcESaIcEEEb, .-_Z8autoNameNSt7__cxx1112basic_stringIcSt11char_traitsIcESaIcEEEb
	.section	.text.unlikely
	.size	_Z8autoNameNSt7__cxx1112basic_stringIcSt11char_traitsIcESaIcEEEb.cold.199, .-_Z8autoNameNSt7__cxx1112basic_stringIcSt11char_traitsIcESaIcEEEb.cold.199
.LCOLDE42:
	.text
.LHOTE42:
	.section	.rodata.str1.1
.LC43:
	.string	"="
.LC44:
	.string	"lea edi, ["
.LC45:
	.string	"]\n"
.LC46:
	.string	"lea esi, ["
.LC47:
	.string	"push ecx\n"
.LC48:
	.string	"mov ecx, ["
.LC49:
	.string	".size]\n"
.LC50:
	.string	"repz movsb \n"
	.section	.text.unlikely
.LCOLDB51:
	.text
.LHOTB51:
	.p2align 4,,15
	.globl	_Z6useStrRiNSt7__cxx1112basic_stringIcSt11char_traitsIcESaIcEEE
	.type	_Z6useStrRiNSt7__cxx1112basic_stringIcSt11char_traitsIcESaIcEEE, @function
_Z6useStrRiNSt7__cxx1112basic_stringIcSt11char_traitsIcESaIcEEE:
.LFB3161:
	.cfi_startproc
	.cfi_personality 0x9b,DW.ref.__gxx_personality_v0
	.cfi_lsda 0x1b,.LLSDA3161
	call	__x86.get_pc_thunk.ax
	add	eax, OFFSET FLAT:_GLOBAL_OFFSET_TABLE_
	push	ebp
	.cfi_def_cfa_offset 8
	.cfi_offset 5, -8
	mov	ebp, esp
	.cfi_def_cfa_register 5
	push	edi
	push	esi
	lea	edx, -44[ebp]
	push	ebx
	sub	esp, 220
	.cfi_offset 7, -12
	.cfi_offset 6, -16
	.cfi_offset 3, -20
	mov	ebx, DWORD PTR 12[ebp]
	mov	DWORD PTR -188[ebp], eax
	mov	ecx, DWORD PTR _Z10parametersB5cxx11@GOTOFF[eax+4]
	mov	edi, DWORD PTR 8[ebp]
	mov	DWORD PTR -208[ebp], ebx
	mov	ebx, DWORD PTR [edi]
	mov	esi, DWORD PTR gs:20
	mov	DWORD PTR -28[ebp], esi
	xor	esi, esi
	lea	esi, -164[ebp]
	mov	DWORD PTR -192[ebp], edx
	mov	DWORD PTR -200[ebp], esi
	mov	DWORD PTR -172[ebp], esi
	lea	esi, -140[ebp]
	mov	DWORD PTR -52[ebp], edx
	mov	edx, DWORD PTR _Z10parametersB5cxx11@GOTOFF[eax]
	mov	DWORD PTR -204[ebp], esi
	mov	DWORD PTR -148[ebp], esi
	lea	esi, -52[ebp]
	add	ecx, edx
	mov	eax, esi
	mov	DWORD PTR -168[ebp], 0
	mov	BYTE PTR -164[ebp], 0
	mov	DWORD PTR -144[ebp], 0
	mov	BYTE PTR -140[ebp], 0
.LEHB65:
	call	_ZNSt7__cxx1112basic_stringIcSt11char_traitsIcESaIcEE12_M_constructIPcEEvT_S7_St20forward_iterator_tag.constprop.189
.LEHE65:
	lea	ecx, -172[ebp]
	mov	edx, esi
	mov	eax, ecx
	mov	DWORD PTR -196[ebp], ecx
	mov	ecx, ebx
.LEHB66:
	call	_Z7getWordcRNSt7__cxx1112basic_stringIcSt11char_traitsIcESaIcEEES4_i.part.80.constprop.183
.LEHE66:
	mov	ebx, eax
	mov	DWORD PTR [edi], eax
	mov	eax, DWORD PTR -52[ebp]
	cmp	eax, DWORD PTR -192[ebp]
	je	.L894
	sub	esp, 12
	mov	ebx, DWORD PTR -188[ebp]
	push	eax
	call	_ZdlPv@PLT
	mov	ebx, DWORD PTR [edi]
	add	esp, 16
.L894:
	mov	eax, DWORD PTR -192[ebp]
	mov	DWORD PTR -52[ebp], eax
	mov	eax, DWORD PTR -188[ebp]
	mov	edx, DWORD PTR _Z10parametersB5cxx11@GOTOFF[eax]
	mov	ecx, DWORD PTR _Z10parametersB5cxx11@GOTOFF[eax+4]
	mov	eax, esi
	add	ecx, edx
.LEHB67:
	call	_ZNSt7__cxx1112basic_stringIcSt11char_traitsIcESaIcEE12_M_constructIPcEEvT_S7_St20forward_iterator_tag.constprop.189
.LEHE67:
	lea	eax, -148[ebp]
	mov	ecx, ebx
	mov	edx, esi
.LEHB68:
	call	_Z7getWordcRNSt7__cxx1112basic_stringIcSt11char_traitsIcESaIcEEES4_i.part.80.constprop.183
.LEHE68:
	mov	DWORD PTR [edi], eax
	mov	eax, DWORD PTR -52[ebp]
	cmp	eax, DWORD PTR -192[ebp]
	je	.L895
	sub	esp, 12
	mov	ebx, DWORD PTR -188[ebp]
	push	eax
	call	_ZdlPv@PLT
	add	esp, 16
.L895:
	mov	ebx, DWORD PTR -188[ebp]
	sub	esp, 8
	lea	eax, .LC43@GOTOFF[ebx]
	push	eax
	push	DWORD PTR -196[ebp]
	call	_ZNKSt7__cxx1112basic_stringIcSt11char_traitsIcESaIcEE7compareEPKc@PLT
	add	esp, 16
	test	eax, eax
	je	.L976
.L896:
	mov	eax, DWORD PTR -148[ebp]
	cmp	eax, DWORD PTR -204[ebp]
	je	.L926
	sub	esp, 12
	mov	ebx, DWORD PTR -188[ebp]
	push	eax
	call	_ZdlPv@PLT
	add	esp, 16
.L926:
	mov	eax, DWORD PTR -172[ebp]
	cmp	eax, DWORD PTR -200[ebp]
	je	.L893
	sub	esp, 12
	mov	ebx, DWORD PTR -188[ebp]
	push	eax
	call	_ZdlPv@PLT
	add	esp, 16
.L893:
	mov	eax, DWORD PTR -28[ebp]
	xor	eax, DWORD PTR gs:20
	jne	.L977
	lea	esp, -12[ebp]
	pop	ebx
	.cfi_remember_state
	.cfi_restore 3
	pop	esi
	.cfi_restore 6
	pop	edi
	.cfi_restore 7
	pop	ebp
	.cfi_restore 5
	.cfi_def_cfa 4, 4
	ret
	.p2align 4,,10
	.p2align 3
.L976:
	.cfi_restore_state
	mov	esi, DWORD PTR -208[ebp]
	lea	eax, -124[ebp]
	lea	edi, -116[ebp]
	mov	ebx, eax
	mov	DWORD PTR -216[ebp], eax
	mov	edx, DWORD PTR [esi]
	mov	ecx, DWORD PTR 4[esi]
	mov	DWORD PTR -124[ebp], edi
	add	ecx, edx
.LEHB69:
	call	_ZNSt7__cxx1112basic_stringIcSt11char_traitsIcESaIcEE12_M_constructIPcEEvT_S7_St20forward_iterator_tag.constprop.189
.LEHE69:
	sub	esp, 4
	lea	esi, -100[ebp]
	push	1
	push	ebx
	push	esi
.LEHB70:
	.cfi_escape 0x2e,0x10
	call	_Z8autoNameNSt7__cxx1112basic_stringIcSt11char_traitsIcESaIcEEEb
.LEHE70:
	mov	ebx, DWORD PTR -188[ebp]
	push	10
	lea	eax, .LC44@GOTOFF[ebx]
	push	eax
	push	0
	push	0
	push	esi
.LEHB71:
	.cfi_escape 0x2e,0x20
	call	_ZNSt7__cxx1112basic_stringIcSt11char_traitsIcESaIcEE10_M_replaceEjjPKcj@PLT
.LEHE71:
	lea	ebx, -68[ebp]
	lea	edx, 8[eax]
	add	esp, 32
	mov	DWORD PTR -76[ebp], ebx
	mov	ecx, DWORD PTR [eax]
	mov	DWORD PTR -196[ebp], ebx
	cmp	ecx, edx
	je	.L978
	mov	DWORD PTR -76[ebp], ecx
	mov	ecx, DWORD PTR 8[eax]
	mov	DWORD PTR -68[ebp], ecx
.L898:
	mov	ecx, DWORD PTR 4[eax]
	mov	DWORD PTR -72[ebp], ecx
	mov	DWORD PTR [eax], edx
	mov	DWORD PTR 4[eax], 0
	mov	BYTE PTR 8[eax], 0
	mov	eax, 2147483647
	sub	eax, DWORD PTR -72[ebp]
	cmp	eax, 1
	jbe	.L979
	mov	ebx, DWORD PTR -188[ebp]
	sub	esp, 4
	push	2
	lea	eax, .LC45@GOTOFF[ebx]
	push	eax
	mov	DWORD PTR -224[ebp], eax
	lea	eax, -76[ebp]
	push	eax
	mov	DWORD PTR -220[ebp], eax
.LEHB72:
	.cfi_escape 0x2e,0x10
	call	_ZNSt7__cxx1112basic_stringIcSt11char_traitsIcESaIcEE9_M_appendEPKcj@PLT
.LEHE72:
	mov	edx, DWORD PTR -192[ebp]
	add	esp, 16
	mov	DWORD PTR -52[ebp], edx
	mov	ecx, DWORD PTR [eax]
	lea	edx, 8[eax]
	cmp	ecx, edx
	je	.L980
	mov	DWORD PTR -52[ebp], ecx
	mov	ecx, DWORD PTR 8[eax]
	mov	DWORD PTR -44[ebp], ecx
.L901:
	mov	ecx, DWORD PTR 4[eax]
	sub	esp, 4
	mov	DWORD PTR -48[ebp], ecx
	mov	DWORD PTR [eax], edx
	mov	DWORD PTR 4[eax], 0
	mov	BYTE PTR 8[eax], 0
	mov	eax, DWORD PTR -188[ebp]
	push	DWORD PTR -48[ebp]
	lea	edx, _Z9codbufferB5cxx11@GOTOFF[eax]
	push	DWORD PTR -52[ebp]
	mov	ebx, eax
	push	edx
	mov	DWORD PTR -208[ebp], edx
.LEHB73:
	call	_ZNSt7__cxx1112basic_stringIcSt11char_traitsIcESaIcEE9_M_appendEPKcj@PLT
.LEHE73:
	add	esp, 16
	mov	eax, DWORD PTR -52[ebp]
	cmp	eax, DWORD PTR -192[ebp]
	je	.L902
	sub	esp, 12
	mov	ebx, DWORD PTR -188[ebp]
	push	eax
	call	_ZdlPv@PLT
	add	esp, 16
.L902:
	mov	eax, DWORD PTR -76[ebp]
	cmp	eax, DWORD PTR -196[ebp]
	je	.L903
	sub	esp, 12
	mov	ebx, DWORD PTR -188[ebp]
	push	eax
	call	_ZdlPv@PLT
	add	esp, 16
.L903:
	mov	eax, DWORD PTR -100[ebp]
	lea	edx, -92[ebp]
	mov	DWORD PTR -212[ebp], edx
	cmp	eax, edx
	je	.L904
	sub	esp, 12
	mov	ebx, DWORD PTR -188[ebp]
	push	eax
	call	_ZdlPv@PLT
	add	esp, 16
.L904:
	mov	eax, DWORD PTR -124[ebp]
	cmp	eax, edi
	je	.L905
	sub	esp, 12
	mov	ebx, DWORD PTR -188[ebp]
	push	eax
	call	_ZdlPv@PLT
	add	esp, 16
.L905:
	mov	edx, DWORD PTR -148[ebp]
	mov	ecx, DWORD PTR -144[ebp]
	mov	DWORD PTR -124[ebp], edi
	mov	ebx, DWORD PTR -216[ebp]
	add	ecx, edx
	mov	eax, ebx
.LEHB74:
	.cfi_escape 0x2e,0
	call	_ZNSt7__cxx1112basic_stringIcSt11char_traitsIcESaIcEE12_M_constructIPcEEvT_S7_St20forward_iterator_tag.constprop.189
.LEHE74:
	sub	esp, 4
	push	1
	push	ebx
	push	esi
.LEHB75:
	.cfi_escape 0x2e,0x10
	call	_Z8autoNameNSt7__cxx1112basic_stringIcSt11char_traitsIcESaIcEEEb
.LEHE75:
	mov	ebx, DWORD PTR -188[ebp]
	push	10
	lea	eax, .LC46@GOTOFF[ebx]
	push	eax
	push	0
	push	0
	push	esi
.LEHB76:
	.cfi_escape 0x2e,0x20
	call	_ZNSt7__cxx1112basic_stringIcSt11char_traitsIcESaIcEE10_M_replaceEjjPKcj@PLT
.LEHE76:
	mov	edx, DWORD PTR -196[ebp]
	add	esp, 32
	mov	DWORD PTR -76[ebp], edx
	mov	ecx, DWORD PTR [eax]
	lea	edx, 8[eax]
	cmp	ecx, edx
	je	.L981
	mov	DWORD PTR -76[ebp], ecx
	mov	ecx, DWORD PTR 8[eax]
	mov	DWORD PTR -68[ebp], ecx
.L907:
	mov	ecx, DWORD PTR 4[eax]
	mov	DWORD PTR -72[ebp], ecx
	mov	DWORD PTR [eax], edx
	mov	DWORD PTR 4[eax], 0
	mov	BYTE PTR 8[eax], 0
	mov	eax, 2147483647
	sub	eax, DWORD PTR -72[ebp]
	cmp	eax, 1
	jbe	.L982
	sub	esp, 4
	mov	ebx, DWORD PTR -188[ebp]
	push	2
	push	DWORD PTR -224[ebp]
	push	DWORD PTR -220[ebp]
.LEHB77:
	.cfi_escape 0x2e,0x10
	call	_ZNSt7__cxx1112basic_stringIcSt11char_traitsIcESaIcEE9_M_appendEPKcj@PLT
.LEHE77:
	mov	edx, DWORD PTR -192[ebp]
	add	esp, 16
	mov	DWORD PTR -52[ebp], edx
	mov	ecx, DWORD PTR [eax]
	lea	edx, 8[eax]
	cmp	ecx, edx
	je	.L983
	mov	DWORD PTR -52[ebp], ecx
	mov	ecx, DWORD PTR 8[eax]
	mov	DWORD PTR -44[ebp], ecx
.L910:
	mov	ecx, DWORD PTR 4[eax]
	sub	esp, 4
	mov	ebx, DWORD PTR -188[ebp]
	mov	DWORD PTR -48[ebp], ecx
	mov	DWORD PTR [eax], edx
	mov	DWORD PTR 4[eax], 0
	mov	BYTE PTR 8[eax], 0
	push	DWORD PTR -48[ebp]
	push	DWORD PTR -52[ebp]
	push	DWORD PTR -208[ebp]
.LEHB78:
	call	_ZNSt7__cxx1112basic_stringIcSt11char_traitsIcESaIcEE9_M_appendEPKcj@PLT
.LEHE78:
	add	esp, 16
	mov	eax, DWORD PTR -52[ebp]
	cmp	eax, DWORD PTR -192[ebp]
	je	.L911
	sub	esp, 12
	mov	ebx, DWORD PTR -188[ebp]
	push	eax
	call	_ZdlPv@PLT
	add	esp, 16
.L911:
	mov	eax, DWORD PTR -76[ebp]
	cmp	eax, DWORD PTR -196[ebp]
	je	.L912
	sub	esp, 12
	mov	ebx, DWORD PTR -188[ebp]
	push	eax
	call	_ZdlPv@PLT
	add	esp, 16
.L912:
	mov	eax, DWORD PTR -100[ebp]
	cmp	eax, DWORD PTR -212[ebp]
	je	.L913
	sub	esp, 12
	mov	ebx, DWORD PTR -188[ebp]
	push	eax
	call	_ZdlPv@PLT
	add	esp, 16
.L913:
	mov	eax, DWORD PTR -124[ebp]
	cmp	eax, edi
	je	.L914
	sub	esp, 12
	mov	ebx, DWORD PTR -188[ebp]
	push	eax
	call	_ZdlPv@PLT
	add	esp, 16
.L914:
	mov	ecx, DWORD PTR -188[ebp]
	mov	eax, 2147483647
	sub	eax, DWORD PTR _Z9codbufferB5cxx11@GOTOFF[ecx+4]
	cmp	eax, 8
	jbe	.L984
	sub	esp, 4
	lea	eax, .LC47@GOTOFF[ecx]
	mov	ebx, ecx
	push	9
	push	eax
	push	DWORD PTR -208[ebp]
.LEHB79:
	call	_ZNSt7__cxx1112basic_stringIcSt11char_traitsIcESaIcEE9_M_appendEPKcj@PLT
	mov	edx, DWORD PTR -148[ebp]
	mov	ecx, DWORD PTR -144[ebp]
	add	esp, 16
	mov	DWORD PTR -124[ebp], edi
	mov	ebx, DWORD PTR -216[ebp]
	add	ecx, edx
	mov	eax, ebx
	.cfi_escape 0x2e,0
	call	_ZNSt7__cxx1112basic_stringIcSt11char_traitsIcESaIcEE12_M_constructIPcEEvT_S7_St20forward_iterator_tag.constprop.189
.LEHE79:
	sub	esp, 4
	push	1
	push	ebx
	push	esi
.LEHB80:
	.cfi_escape 0x2e,0x10
	call	_Z8autoNameNSt7__cxx1112basic_stringIcSt11char_traitsIcESaIcEEEb
.LEHE80:
	mov	ebx, DWORD PTR -188[ebp]
	push	10
	lea	eax, .LC48@GOTOFF[ebx]
	push	eax
	push	0
	push	0
	push	esi
.LEHB81:
	.cfi_escape 0x2e,0x20
	call	_ZNSt7__cxx1112basic_stringIcSt11char_traitsIcESaIcEE10_M_replaceEjjPKcj@PLT
.LEHE81:
	mov	esi, DWORD PTR -196[ebp]
	lea	edx, 8[eax]
	add	esp, 32
	mov	DWORD PTR -76[ebp], esi
	mov	ecx, DWORD PTR [eax]
	cmp	ecx, edx
	je	.L985
	mov	DWORD PTR -76[ebp], ecx
	mov	ecx, DWORD PTR 8[eax]
	mov	DWORD PTR -68[ebp], ecx
.L917:
	mov	ecx, DWORD PTR 4[eax]
	mov	DWORD PTR -72[ebp], ecx
	mov	DWORD PTR [eax], edx
	mov	DWORD PTR 4[eax], 0
	mov	BYTE PTR 8[eax], 0
	mov	eax, 2147483647
	sub	eax, DWORD PTR -72[ebp]
	cmp	eax, 6
	jbe	.L986
	mov	ebx, DWORD PTR -188[ebp]
	sub	esp, 4
	push	7
	lea	eax, .LC49@GOTOFF[ebx]
	push	eax
	push	DWORD PTR -220[ebp]
.LEHB82:
	.cfi_escape 0x2e,0x10
	call	_ZNSt7__cxx1112basic_stringIcSt11char_traitsIcESaIcEE9_M_appendEPKcj@PLT
.LEHE82:
	mov	esi, DWORD PTR -192[ebp]
	lea	edx, 8[eax]
	add	esp, 16
	mov	DWORD PTR -52[ebp], esi
	mov	ecx, DWORD PTR [eax]
	cmp	ecx, edx
	je	.L987
	mov	DWORD PTR -52[ebp], ecx
	mov	ecx, DWORD PTR 8[eax]
	mov	DWORD PTR -44[ebp], ecx
.L920:
	mov	ecx, DWORD PTR 4[eax]
	sub	esp, 4
	mov	esi, DWORD PTR -188[ebp]
	mov	DWORD PTR -48[ebp], ecx
	mov	ebx, esi
	mov	DWORD PTR [eax], edx
	mov	DWORD PTR 4[eax], 0
	mov	BYTE PTR 8[eax], 0
	push	DWORD PTR -48[ebp]
	push	DWORD PTR -52[ebp]
	push	DWORD PTR -208[ebp]
.LEHB83:
	call	_ZNSt7__cxx1112basic_stringIcSt11char_traitsIcESaIcEE9_M_appendEPKcj@PLT
.LEHE83:
	add	esp, 16
	mov	eax, DWORD PTR -52[ebp]
	cmp	eax, DWORD PTR -192[ebp]
	je	.L921
	sub	esp, 12
	push	eax
	call	_ZdlPv@PLT
	add	esp, 16
.L921:
	mov	eax, DWORD PTR -76[ebp]
	cmp	eax, DWORD PTR -196[ebp]
	je	.L922
	sub	esp, 12
	mov	ebx, DWORD PTR -188[ebp]
	push	eax
	call	_ZdlPv@PLT
	add	esp, 16
.L922:
	mov	eax, DWORD PTR -100[ebp]
	cmp	eax, DWORD PTR -212[ebp]
	je	.L923
	sub	esp, 12
	mov	ebx, DWORD PTR -188[ebp]
	push	eax
	call	_ZdlPv@PLT
	add	esp, 16
.L923:
	mov	eax, DWORD PTR -124[ebp]
	cmp	eax, edi
	je	.L924
	sub	esp, 12
	mov	ebx, DWORD PTR -188[ebp]
	push	eax
	call	_ZdlPv@PLT
	add	esp, 16
.L924:
	mov	edi, DWORD PTR -188[ebp]
	mov	eax, 2147483647
	sub	eax, DWORD PTR _Z9codbufferB5cxx11@GOTOFF[edi+4]
	cmp	eax, 11
	jbe	.L988
	sub	esp, 4
	lea	eax, .LC50@GOTOFF[edi]
	mov	ebx, edi
	push	12
	push	eax
	push	DWORD PTR -208[ebp]
.LEHB84:
	call	_ZNSt7__cxx1112basic_stringIcSt11char_traitsIcESaIcEE9_M_appendEPKcj@PLT
	add	esp, 16
	jmp	.L896
	.p2align 4,,10
	.p2align 3
.L980:
	mov	ecx, DWORD PTR 8[eax]
	mov	DWORD PTR -44[ebp], ecx
	mov	ecx, DWORD PTR 12[eax]
	mov	DWORD PTR -40[ebp], ecx
	mov	ecx, DWORD PTR 16[eax]
	mov	DWORD PTR -36[ebp], ecx
	mov	ecx, DWORD PTR 20[eax]
	mov	DWORD PTR -32[ebp], ecx
	jmp	.L901
	.p2align 4,,10
	.p2align 3
.L985:
	mov	ecx, DWORD PTR 8[eax]
	mov	DWORD PTR -68[ebp], ecx
	mov	ecx, DWORD PTR 12[eax]
	mov	DWORD PTR -64[ebp], ecx
	mov	ecx, DWORD PTR 16[eax]
	mov	DWORD PTR -60[ebp], ecx
	mov	ecx, DWORD PTR 20[eax]
	mov	DWORD PTR -56[ebp], ecx
	jmp	.L917
	.p2align 4,,10
	.p2align 3
.L981:
	mov	ecx, DWORD PTR 8[eax]
	mov	DWORD PTR -68[ebp], ecx
	mov	ecx, DWORD PTR 12[eax]
	mov	DWORD PTR -64[ebp], ecx
	mov	ecx, DWORD PTR 16[eax]
	mov	DWORD PTR -60[ebp], ecx
	mov	ecx, DWORD PTR 20[eax]
	mov	DWORD PTR -56[ebp], ecx
	jmp	.L907
	.p2align 4,,10
	.p2align 3
.L983:
	mov	ecx, DWORD PTR 8[eax]
	mov	DWORD PTR -44[ebp], ecx
	mov	ecx, DWORD PTR 12[eax]
	mov	DWORD PTR -40[ebp], ecx
	mov	ecx, DWORD PTR 16[eax]
	mov	DWORD PTR -36[ebp], ecx
	mov	ecx, DWORD PTR 20[eax]
	mov	DWORD PTR -32[ebp], ecx
	jmp	.L910
	.p2align 4,,10
	.p2align 3
.L978:
	mov	ecx, DWORD PTR 8[eax]
	mov	DWORD PTR -68[ebp], ecx
	mov	ecx, DWORD PTR 12[eax]
	mov	DWORD PTR -64[ebp], ecx
	mov	ecx, DWORD PTR 16[eax]
	mov	DWORD PTR -60[ebp], ecx
	mov	ecx, DWORD PTR 20[eax]
	mov	DWORD PTR -56[ebp], ecx
	jmp	.L898
	.p2align 4,,10
	.p2align 3
.L987:
	mov	ecx, DWORD PTR 8[eax]
	mov	DWORD PTR -44[ebp], ecx
	mov	ecx, DWORD PTR 12[eax]
	mov	DWORD PTR -40[ebp], ecx
	mov	ecx, DWORD PTR 16[eax]
	mov	DWORD PTR -36[ebp], ecx
	mov	ecx, DWORD PTR 20[eax]
	mov	DWORD PTR -32[ebp], ecx
	jmp	.L920
.L977:
	call	__stack_chk_fail_local
.L984:
	sub	esp, 12
	lea	eax, .LC1@GOTOFF[ecx]
	mov	ebx, ecx
	push	eax
	call	_ZSt20__throw_length_errorPKc@PLT
.L988:
	sub	esp, 12
	lea	eax, .LC1@GOTOFF[edi]
	mov	ebx, edi
	push	eax
	call	_ZSt20__throw_length_errorPKc@PLT
.LEHE84:
.L979:
	mov	ebx, DWORD PTR -188[ebp]
	sub	esp, 12
	lea	eax, .LC1@GOTOFF[ebx]
	push	eax
.LEHB85:
	call	_ZSt20__throw_length_errorPKc@PLT
.LEHE85:
.L982:
	mov	ebx, DWORD PTR -188[ebp]
	sub	esp, 12
	lea	eax, .LC1@GOTOFF[ebx]
	push	eax
.LEHB86:
	call	_ZSt20__throw_length_errorPKc@PLT
.LEHE86:
.L986:
	mov	ebx, DWORD PTR -188[ebp]
	sub	esp, 12
	lea	eax, .LC1@GOTOFF[ebx]
	push	eax
.LEHB87:
	call	_ZSt20__throw_length_errorPKc@PLT
.LEHE87:
.L966:
	mov	esi, eax
	jmp	.L933
.L965:
	mov	esi, eax
	jmp	.L935
.L974:
	mov	esi, eax
	jmp	.L949
.L962:
	mov	esi, eax
	jmp	.L931
.L961:
	mov	esi, eax
	jmp	.L928
.L960:
	mov	esi, eax
	jmp	.L930
.L973:
	mov	esi, eax
	jmp	.L951
.L963:
	mov	esi, eax
	jmp	.L939
.L964:
	mov	esi, eax
	jmp	.L937
.L967:
	mov	esi, eax
	jmp	.L947
.L968:
	mov	esi, eax
	jmp	.L945
.L971:
	mov	esi, eax
	jmp	.L955
.L972:
	mov	esi, eax
	jmp	.L953
.L970:
	mov	esi, eax
	jmp	.L941
.L969:
	mov	esi, eax
	jmp	.L943
	.section	.gcc_except_table
.LLSDA3161:
	.byte	0xff
	.byte	0xff
	.byte	0x1
	.uleb128 .LLSDACSE3161-.LLSDACSB3161
.LLSDACSB3161:
	.uleb128 .LEHB65-.LFB3161
	.uleb128 .LEHE65-.LEHB65
	.uleb128 .L960-.LFB3161
	.uleb128 0
	.uleb128 .LEHB66-.LFB3161
	.uleb128 .LEHE66-.LEHB66
	.uleb128 .L961-.LFB3161
	.uleb128 0
	.uleb128 .LEHB67-.LFB3161
	.uleb128 .LEHE67-.LEHB67
	.uleb128 .L960-.LFB3161
	.uleb128 0
	.uleb128 .LEHB68-.LFB3161
	.uleb128 .LEHE68-.LEHB68
	.uleb128 .L962-.LFB3161
	.uleb128 0
	.uleb128 .LEHB69-.LFB3161
	.uleb128 .LEHE69-.LEHB69
	.uleb128 .L960-.LFB3161
	.uleb128 0
	.uleb128 .LEHB70-.LFB3161
	.uleb128 .LEHE70-.LEHB70
	.uleb128 .L963-.LFB3161
	.uleb128 0
	.uleb128 .LEHB71-.LFB3161
	.uleb128 .LEHE71-.LEHB71
	.uleb128 .L964-.LFB3161
	.uleb128 0
	.uleb128 .LEHB72-.LFB3161
	.uleb128 .LEHE72-.LEHB72
	.uleb128 .L965-.LFB3161
	.uleb128 0
	.uleb128 .LEHB73-.LFB3161
	.uleb128 .LEHE73-.LEHB73
	.uleb128 .L966-.LFB3161
	.uleb128 0
	.uleb128 .LEHB74-.LFB3161
	.uleb128 .LEHE74-.LEHB74
	.uleb128 .L960-.LFB3161
	.uleb128 0
	.uleb128 .LEHB75-.LFB3161
	.uleb128 .LEHE75-.LEHB75
	.uleb128 .L967-.LFB3161
	.uleb128 0
	.uleb128 .LEHB76-.LFB3161
	.uleb128 .LEHE76-.LEHB76
	.uleb128 .L968-.LFB3161
	.uleb128 0
	.uleb128 .LEHB77-.LFB3161
	.uleb128 .LEHE77-.LEHB77
	.uleb128 .L969-.LFB3161
	.uleb128 0
	.uleb128 .LEHB78-.LFB3161
	.uleb128 .LEHE78-.LEHB78
	.uleb128 .L970-.LFB3161
	.uleb128 0
	.uleb128 .LEHB79-.LFB3161
	.uleb128 .LEHE79-.LEHB79
	.uleb128 .L960-.LFB3161
	.uleb128 0
	.uleb128 .LEHB80-.LFB3161
	.uleb128 .LEHE80-.LEHB80
	.uleb128 .L971-.LFB3161
	.uleb128 0
	.uleb128 .LEHB81-.LFB3161
	.uleb128 .LEHE81-.LEHB81
	.uleb128 .L972-.LFB3161
	.uleb128 0
	.uleb128 .LEHB82-.LFB3161
	.uleb128 .LEHE82-.LEHB82
	.uleb128 .L973-.LFB3161
	.uleb128 0
	.uleb128 .LEHB83-.LFB3161
	.uleb128 .LEHE83-.LEHB83
	.uleb128 .L974-.LFB3161
	.uleb128 0
	.uleb128 .LEHB84-.LFB3161
	.uleb128 .LEHE84-.LEHB84
	.uleb128 .L960-.LFB3161
	.uleb128 0
	.uleb128 .LEHB85-.LFB3161
	.uleb128 .LEHE85-.LEHB85
	.uleb128 .L965-.LFB3161
	.uleb128 0
	.uleb128 .LEHB86-.LFB3161
	.uleb128 .LEHE86-.LEHB86
	.uleb128 .L969-.LFB3161
	.uleb128 0
	.uleb128 .LEHB87-.LFB3161
	.uleb128 .LEHE87-.LEHB87
	.uleb128 .L973-.LFB3161
	.uleb128 0
.LLSDACSE3161:
	.text
	.cfi_endproc
	.section	.text.unlikely
	.cfi_startproc
	.cfi_personality 0x9b,DW.ref.__gxx_personality_v0
	.cfi_lsda 0x1b,.LLSDAC3161
	.type	_Z6useStrRiNSt7__cxx1112basic_stringIcSt11char_traitsIcESaIcEEE.cold.200, @function
_Z6useStrRiNSt7__cxx1112basic_stringIcSt11char_traitsIcESaIcEEE.cold.200:
.LFSB3161:
.L933:
	.cfi_def_cfa 5, 8
	.cfi_offset 3, -20
	.cfi_offset 5, -8
	.cfi_offset 6, -16
	.cfi_offset 7, -12
	mov	eax, DWORD PTR -52[ebp]
	cmp	eax, DWORD PTR -192[ebp]
	je	.L935
	sub	esp, 12
	mov	ebx, DWORD PTR -188[ebp]
	push	eax
	call	_ZdlPv@PLT
	add	esp, 16
.L935:
	mov	eax, DWORD PTR -76[ebp]
	cmp	eax, DWORD PTR -196[ebp]
	je	.L937
	sub	esp, 12
	mov	ebx, DWORD PTR -188[ebp]
	push	eax
	call	_ZdlPv@PLT
	add	esp, 16
.L937:
	mov	eax, DWORD PTR -100[ebp]
	lea	edx, -92[ebp]
	cmp	eax, edx
	je	.L939
	sub	esp, 12
	mov	ebx, DWORD PTR -188[ebp]
	push	eax
	call	_ZdlPv@PLT
	add	esp, 16
.L939:
	mov	eax, DWORD PTR -124[ebp]
	cmp	eax, edi
	je	.L930
	sub	esp, 12
	mov	ebx, DWORD PTR -188[ebp]
	push	eax
	call	_ZdlPv@PLT
	add	esp, 16
.L930:
	mov	eax, DWORD PTR -148[ebp]
	cmp	eax, DWORD PTR -204[ebp]
	je	.L957
	sub	esp, 12
	mov	ebx, DWORD PTR -188[ebp]
	push	eax
	call	_ZdlPv@PLT
	add	esp, 16
.L957:
	mov	eax, DWORD PTR -172[ebp]
	cmp	eax, DWORD PTR -200[ebp]
	je	.L958
	sub	esp, 12
	mov	ebx, DWORD PTR -188[ebp]
	push	eax
	call	_ZdlPv@PLT
	add	esp, 16
.L958:
	sub	esp, 12
	mov	ebx, DWORD PTR -188[ebp]
	push	esi
.LEHB88:
	call	_Unwind_Resume@PLT
.LEHE88:
.L949:
	mov	eax, DWORD PTR -52[ebp]
	cmp	eax, DWORD PTR -192[ebp]
	je	.L951
	sub	esp, 12
	mov	ebx, DWORD PTR -188[ebp]
	push	eax
	call	_ZdlPv@PLT
	add	esp, 16
.L951:
	mov	eax, DWORD PTR -76[ebp]
	cmp	eax, DWORD PTR -196[ebp]
	je	.L953
	sub	esp, 12
	mov	ebx, DWORD PTR -188[ebp]
	push	eax
	call	_ZdlPv@PLT
	add	esp, 16
.L953:
	mov	eax, DWORD PTR -100[ebp]
	cmp	eax, DWORD PTR -212[ebp]
	je	.L955
	sub	esp, 12
	mov	ebx, DWORD PTR -188[ebp]
	push	eax
	call	_ZdlPv@PLT
	add	esp, 16
.L955:
	mov	eax, DWORD PTR -124[ebp]
	cmp	eax, edi
	je	.L930
	sub	esp, 12
	mov	ebx, DWORD PTR -188[ebp]
	push	eax
	call	_ZdlPv@PLT
	add	esp, 16
	jmp	.L930
.L931:
	mov	eax, DWORD PTR -52[ebp]
	cmp	eax, DWORD PTR -192[ebp]
	je	.L930
	sub	esp, 12
	mov	ebx, DWORD PTR -188[ebp]
	push	eax
	call	_ZdlPv@PLT
	add	esp, 16
	jmp	.L930
.L928:
	mov	eax, DWORD PTR -52[ebp]
	cmp	eax, DWORD PTR -192[ebp]
	je	.L930
	sub	esp, 12
	mov	ebx, DWORD PTR -188[ebp]
	push	eax
	call	_ZdlPv@PLT
	add	esp, 16
	jmp	.L930
.L941:
	mov	eax, DWORD PTR -52[ebp]
	cmp	eax, DWORD PTR -192[ebp]
	je	.L943
	sub	esp, 12
	mov	ebx, DWORD PTR -188[ebp]
	push	eax
	call	_ZdlPv@PLT
	add	esp, 16
.L943:
	mov	eax, DWORD PTR -76[ebp]
	cmp	eax, DWORD PTR -196[ebp]
	je	.L945
	sub	esp, 12
	mov	ebx, DWORD PTR -188[ebp]
	push	eax
	call	_ZdlPv@PLT
	add	esp, 16
.L945:
	mov	eax, DWORD PTR -100[ebp]
	cmp	eax, DWORD PTR -212[ebp]
	je	.L947
	sub	esp, 12
	mov	ebx, DWORD PTR -188[ebp]
	push	eax
	call	_ZdlPv@PLT
	add	esp, 16
.L947:
	mov	eax, DWORD PTR -124[ebp]
	cmp	eax, edi
	je	.L930
	sub	esp, 12
	mov	ebx, DWORD PTR -188[ebp]
	push	eax
	call	_ZdlPv@PLT
	add	esp, 16
	jmp	.L930
	.cfi_endproc
.LFE3161:
	.section	.gcc_except_table
.LLSDAC3161:
	.byte	0xff
	.byte	0xff
	.byte	0x1
	.uleb128 .LLSDACSEC3161-.LLSDACSBC3161
.LLSDACSBC3161:
	.uleb128 .LEHB88-.LCOLDB51
	.uleb128 .LEHE88-.LEHB88
	.uleb128 0
	.uleb128 0
.LLSDACSEC3161:
	.section	.text.unlikely
	.text
	.size	_Z6useStrRiNSt7__cxx1112basic_stringIcSt11char_traitsIcESaIcEEE, .-_Z6useStrRiNSt7__cxx1112basic_stringIcSt11char_traitsIcESaIcEEE
	.section	.text.unlikely
	.size	_Z6useStrRiNSt7__cxx1112basic_stringIcSt11char_traitsIcESaIcEEE.cold.200, .-_Z6useStrRiNSt7__cxx1112basic_stringIcSt11char_traitsIcESaIcEEE.cold.200
.LCOLDE51:
	.text
.LHOTE51:
	.section	.text.unlikely
.LCOLDB52:
	.text
.LHOTB52:
	.p2align 4,,15
	.type	_Z8autoNameNSt7__cxx1112basic_stringIcSt11char_traitsIcESaIcEEEb.constprop.186, @function
_Z8autoNameNSt7__cxx1112basic_stringIcSt11char_traitsIcESaIcEEEb.constprop.186:
.LFB4637:
	.cfi_startproc
	.cfi_personality 0x9b,DW.ref.__gxx_personality_v0
	.cfi_lsda 0x1b,.LLSDA4637
	push	ebp
	.cfi_def_cfa_offset 8
	.cfi_offset 5, -8
	mov	ebp, esp
	.cfi_def_cfa_register 5
	push	edi
	.cfi_offset 7, -12
	call	__x86.get_pc_thunk.di
	add	edi, OFFSET FLAT:_GLOBAL_OFFSET_TABLE_
	push	esi
	.cfi_offset 6, -16
	mov	esi, edx
	push	ebx
	sub	esp, 76
	.cfi_offset 3, -20
	mov	ecx, DWORD PTR [edx]
	mov	edx, DWORD PTR 4[edx]
	mov	DWORD PTR -60[ebp], edi
	mov	edi, eax
	mov	eax, DWORD PTR gs:20
	mov	DWORD PTR -28[ebp], eax
	xor	eax, eax
	lea	eax, -44[ebp]
	mov	DWORD PTR -64[ebp], eax
	mov	DWORD PTR -52[ebp], eax
	mov	eax, ecx
	add	eax, edx
	je	.L990
	test	ecx, ecx
	je	.L1021
.L990:
	mov	DWORD PTR -56[ebp], edx
	cmp	edx, 15
	ja	.L1022
	cmp	edx, 1
	jne	.L993
	movzx	eax, BYTE PTR [ecx]
	lea	ecx, -52[ebp]
	mov	DWORD PTR -68[ebp], ecx
	mov	BYTE PTR -44[ebp], al
	mov	eax, DWORD PTR -64[ebp]
.L994:
	sub	esp, 8
	mov	DWORD PTR -48[ebp], edx
	mov	BYTE PTR [eax+edx], 0
	push	0
	push	DWORD PTR -68[ebp]
.LEHB89:
	.cfi_escape 0x2e,0x10
	call	_Z12ifVarIsLocalNSt7__cxx1112basic_stringIcSt11char_traitsIcESaIcEEEb
.LEHE89:
	add	esp, 16
	mov	edx, DWORD PTR -52[ebp]
	cmp	edx, DWORD PTR -64[ebp]
	je	.L995
	sub	esp, 12
	mov	ebx, DWORD PTR -60[ebp]
	mov	BYTE PTR -72[ebp], al
	push	edx
	call	_ZdlPv@PLT
	movzx	eax, BYTE PTR -72[ebp]
	add	esp, 16
.L995:
	test	al, al
	je	.L996
	mov	ebx, DWORD PTR -60[ebp]
	sub	esp, 8
	lea	eax, .LC2@GOTOFF[ebx]
	push	eax
	mov	eax, DWORD PTR _Z22LocalizedVariableNamesB5cxx11@GOTOFF[ebx+4]
	sub	eax, 24
	push	eax
	call	_ZNKSt7__cxx1112basic_stringIcSt11char_traitsIcESaIcEE7compareEPKc@PLT
	add	esp, 16
	test	eax, eax
	jne	.L997
	mov	ebx, DWORD PTR -60[ebp]
	sub	esp, 4
	push	esi
	mov	eax, DWORD PTR _Z9classNameB5cxx11@GOTOFF[ebx+4]
	sub	eax, 24
	push	eax
	push	edi
.LEHB90:
	call	_ZStplIcSt11char_traitsIcESaIcEENSt7__cxx1112basic_stringIT_T0_T1_EERKS8_SA_
	add	esp, 12
.L989:
	mov	eax, edi
	mov	edi, DWORD PTR -28[ebp]
	xor	edi, DWORD PTR gs:20
	jne	.L1023
	lea	esp, -12[ebp]
	pop	ebx
	.cfi_remember_state
	.cfi_restore 3
	pop	esi
	.cfi_restore 6
	pop	edi
	.cfi_restore 7
	pop	ebp
	.cfi_restore 5
	.cfi_def_cfa 4, 4
	ret
	.p2align 4,,10
	.p2align 3
.L993:
	.cfi_restore_state
	mov	eax, DWORD PTR -64[ebp]
	test	edx, edx
	jne	.L1024
	lea	ecx, -52[ebp]
	mov	DWORD PTR -68[ebp], ecx
	jmp	.L994
	.p2align 4,,10
	.p2align 3
.L996:
	mov	edx, DWORD PTR [esi]
	lea	ecx, 8[edi]
	lea	eax, 8[esi]
	mov	DWORD PTR [edi], ecx
	cmp	edx, eax
	je	.L1025
	mov	DWORD PTR [edi], edx
	mov	edx, DWORD PTR 8[esi]
	mov	DWORD PTR 8[edi], edx
.L1003:
	mov	edx, DWORD PTR 4[esi]
	mov	DWORD PTR [esi], eax
	mov	DWORD PTR 4[esi], 0
	mov	DWORD PTR 4[edi], edx
	mov	BYTE PTR 8[esi], 0
	jmp	.L989
	.p2align 4,,10
	.p2align 3
.L1022:
	sub	esp, 4
	lea	eax, -56[ebp]
	mov	ebx, DWORD PTR -60[ebp]
	mov	DWORD PTR -76[ebp], edx
	push	0
	push	eax
	lea	eax, -52[ebp]
	push	eax
	mov	DWORD PTR -72[ebp], ecx
	mov	DWORD PTR -68[ebp], eax
	call	_ZNSt7__cxx1112basic_stringIcSt11char_traitsIcESaIcEE9_M_createERjj@PLT
	mov	ebx, DWORD PTR -56[ebp]
	mov	ecx, DWORD PTR -72[ebp]
	add	esp, 16
	mov	DWORD PTR -52[ebp], eax
	mov	edx, DWORD PTR -76[ebp]
	mov	DWORD PTR -44[ebp], ebx
.L992:
	sub	esp, 4
	mov	ebx, DWORD PTR -60[ebp]
	push	edx
	push	ecx
	push	eax
	call	memcpy@PLT
	mov	edx, DWORD PTR -56[ebp]
	mov	eax, DWORD PTR -52[ebp]
	add	esp, 16
	jmp	.L994
	.p2align 4,,10
	.p2align 3
.L997:
	mov	ebx, DWORD PTR -60[ebp]
	sub	esp, 4
	mov	eax, DWORD PTR _Z22LocalizedVariableNamesB5cxx11@GOTOFF[ebx+4]
	sub	eax, 24
	push	eax
	mov	eax, DWORD PTR _Z9classNameB5cxx11@GOTOFF[ebx+4]
	sub	eax, 24
	push	eax
	push	DWORD PTR -68[ebp]
	call	_ZStplIcSt11char_traitsIcESaIcEENSt7__cxx1112basic_stringIT_T0_T1_EERKS8_SA_
.LEHE90:
	pop	eax
	pop	edx
	push	DWORD PTR 4[esi]
	push	DWORD PTR [esi]
	push	DWORD PTR -68[ebp]
.LEHB91:
	call	_ZNSt7__cxx1112basic_stringIcSt11char_traitsIcESaIcEE9_M_appendEPKcj@PLT
.LEHE91:
	lea	esi, 8[edi]
	lea	edx, 8[eax]
	add	esp, 16
	mov	DWORD PTR [edi], esi
	mov	ecx, DWORD PTR [eax]
	cmp	ecx, edx
	je	.L1026
	mov	DWORD PTR [edi], ecx
	mov	ecx, DWORD PTR 8[eax]
	mov	DWORD PTR 8[edi], ecx
.L1000:
	mov	ecx, DWORD PTR 4[eax]
	mov	DWORD PTR 4[edi], ecx
	mov	DWORD PTR [eax], edx
	mov	DWORD PTR 4[eax], 0
	mov	BYTE PTR 8[eax], 0
	mov	eax, DWORD PTR -52[ebp]
	cmp	eax, DWORD PTR -64[ebp]
	je	.L989
	sub	esp, 12
	mov	ebx, DWORD PTR -60[ebp]
	push	eax
	call	_ZdlPv@PLT
	add	esp, 16
	jmp	.L989
	.p2align 4,,10
	.p2align 3
.L1025:
	mov	edx, DWORD PTR 8[esi]
	mov	DWORD PTR 8[edi], edx
	mov	edx, DWORD PTR 4[eax]
	mov	DWORD PTR 12[edi], edx
	mov	edx, DWORD PTR 8[eax]
	mov	DWORD PTR 16[edi], edx
	mov	edx, DWORD PTR 12[eax]
	mov	DWORD PTR 20[edi], edx
	jmp	.L1003
.L1021:
	mov	ebx, DWORD PTR -60[ebp]
	sub	esp, 12
	lea	eax, .LC0@GOTOFF[ebx]
	push	eax
.LEHB92:
	call	_ZSt19__throw_logic_errorPKc@PLT
.LEHE92:
	.p2align 4,,10
	.p2align 3
.L1026:
	mov	ecx, DWORD PTR 8[eax]
	mov	DWORD PTR 8[edi], ecx
	mov	ecx, DWORD PTR 4[edx]
	mov	DWORD PTR 12[edi], ecx
	mov	ecx, DWORD PTR 8[edx]
	mov	DWORD PTR 16[edi], ecx
	mov	ecx, DWORD PTR 12[edx]
	mov	DWORD PTR 20[edi], ecx
	jmp	.L1000
.L1023:
	call	__stack_chk_fail_local
.L1024:
	lea	ebx, -52[ebp]
	mov	DWORD PTR -68[ebp], ebx
	jmp	.L992
.L1010:
	mov	esi, eax
	jmp	.L1006
.L1011:
	mov	esi, eax
	jmp	.L1006
	.section	.gcc_except_table
.LLSDA4637:
	.byte	0xff
	.byte	0xff
	.byte	0x1
	.uleb128 .LLSDACSE4637-.LLSDACSB4637
.LLSDACSB4637:
	.uleb128 .LEHB89-.LFB4637
	.uleb128 .LEHE89-.LEHB89
	.uleb128 .L1011-.LFB4637
	.uleb128 0
	.uleb128 .LEHB90-.LFB4637
	.uleb128 .LEHE90-.LEHB90
	.uleb128 0
	.uleb128 0
	.uleb128 .LEHB91-.LFB4637
	.uleb128 .LEHE91-.LEHB91
	.uleb128 .L1010-.LFB4637
	.uleb128 0
	.uleb128 .LEHB92-.LFB4637
	.uleb128 .LEHE92-.LEHB92
	.uleb128 0
	.uleb128 0
.LLSDACSE4637:
	.text
	.cfi_endproc
	.section	.text.unlikely
	.cfi_startproc
	.cfi_personality 0x9b,DW.ref.__gxx_personality_v0
	.cfi_lsda 0x1b,.LLSDAC4637
	.type	_Z8autoNameNSt7__cxx1112basic_stringIcSt11char_traitsIcESaIcEEEb.constprop.186.cold.201, @function
_Z8autoNameNSt7__cxx1112basic_stringIcSt11char_traitsIcESaIcEEEb.constprop.186.cold.201:
.LFSB4637:
.L1006:
	.cfi_def_cfa 5, 8
	.cfi_offset 3, -20
	.cfi_offset 5, -8
	.cfi_offset 6, -16
	.cfi_offset 7, -12
	mov	edx, DWORD PTR -52[ebp]
	cmp	edx, DWORD PTR -64[ebp]
	je	.L1007
	sub	esp, 12
	mov	ebx, DWORD PTR -60[ebp]
	push	edx
	call	_ZdlPv@PLT
	add	esp, 16
.L1007:
	sub	esp, 12
	mov	ebx, DWORD PTR -60[ebp]
	push	esi
.LEHB93:
	call	_Unwind_Resume@PLT
.LEHE93:
	.cfi_endproc
.LFE4637:
	.section	.gcc_except_table
.LLSDAC4637:
	.byte	0xff
	.byte	0xff
	.byte	0x1
	.uleb128 .LLSDACSEC4637-.LLSDACSBC4637
.LLSDACSBC4637:
	.uleb128 .LEHB93-.LCOLDB52
	.uleb128 .LEHE93-.LEHB93
	.uleb128 0
	.uleb128 0
.LLSDACSEC4637:
	.section	.text.unlikely
	.text
	.size	_Z8autoNameNSt7__cxx1112basic_stringIcSt11char_traitsIcESaIcEEEb.constprop.186, .-_Z8autoNameNSt7__cxx1112basic_stringIcSt11char_traitsIcESaIcEEEb.constprop.186
	.section	.text.unlikely
	.size	_Z8autoNameNSt7__cxx1112basic_stringIcSt11char_traitsIcESaIcEEEb.constprop.186.cold.201, .-_Z8autoNameNSt7__cxx1112basic_stringIcSt11char_traitsIcESaIcEEEb.constprop.186.cold.201
.LCOLDE52:
	.text
.LHOTE52:
	.section	.rodata.str1.1
.LC53:
	.string	"\n"
.LC54:
	.string	"push eax\n"
.LC55:
	.string	"mov eax, "
.LC56:
	.string	"mul "
.LC57:
	.string	"pop "
.LC58:
	.string	"xchg eax, "
.LC59:
	.string	"mov ["
.LC60:
	.string	"], "
.LC61:
	.string	"mov eax, dword ["
.LC62:
	.string	"], eax\n"
.LC63:
	.string	"pop eax\n"
.LC64:
	.string	"mul dword ["
	.section	.text.unlikely
.LCOLDB65:
	.text
.LHOTB65:
	.p2align 4,,15
	.globl	_Z10doMultiplyRi
	.type	_Z10doMultiplyRi, @function
_Z10doMultiplyRi:
.LFB3116:
	.cfi_startproc
	.cfi_personality 0x9b,DW.ref.__gxx_personality_v0
	.cfi_lsda 0x1b,.LLSDA3116
	call	__x86.get_pc_thunk.ax
	add	eax, OFFSET FLAT:_GLOBAL_OFFSET_TABLE_
	push	ebp
	.cfi_def_cfa_offset 8
	.cfi_offset 5, -8
	mov	ebp, esp
	.cfi_def_cfa_register 5
	push	edi
	push	esi
	.cfi_offset 7, -12
	.cfi_offset 6, -16
	lea	esi, -260[ebp]
	push	ebx
	sub	esp, 412
	.cfi_offset 3, -20
	mov	edi, DWORD PTR 8[ebp]
	mov	DWORD PTR -336[ebp], eax
	mov	DWORD PTR -380[ebp], edi
	mov	edi, DWORD PTR gs:20
	mov	DWORD PTR -28[ebp], edi
	xor	edi, edi
	lea	edi, -308[ebp]
	mov	DWORD PTR -364[ebp], esi
	mov	DWORD PTR -360[ebp], edi
	mov	DWORD PTR -316[ebp], edi
	lea	edi, -284[ebp]
	mov	DWORD PTR -408[ebp], edi
	mov	DWORD PTR -292[ebp], edi
	lea	edi, -236[ebp]
	mov	DWORD PTR -268[ebp], esi
	lea	esi, -212[ebp]
	mov	DWORD PTR -340[ebp], edi
	mov	DWORD PTR -244[ebp], edi
	lea	edi, -188[ebp]
	mov	DWORD PTR -312[ebp], 0
	mov	BYTE PTR -308[ebp], 0
	mov	DWORD PTR -288[ebp], 0
	mov	BYTE PTR -284[ebp], 0
	mov	DWORD PTR -264[ebp], 0
	mov	BYTE PTR -260[ebp], 0
	mov	DWORD PTR -240[ebp], 0
	mov	BYTE PTR -236[ebp], 0
	mov	DWORD PTR -412[ebp], esi
	mov	DWORD PTR -220[ebp], esi
	mov	DWORD PTR -216[ebp], 0
	mov	BYTE PTR -212[ebp], 0
	mov	DWORD PTR -416[ebp], edi
	mov	DWORD PTR -196[ebp], edi
	mov	DWORD PTR -192[ebp], 0
	cmp	DWORD PTR _Z9codbufferB5cxx11@GOTOFF[eax+4], 2147483647
	mov	BYTE PTR -188[ebp], 0
	je	.L1409
	mov	esi, eax
	sub	esp, 4
	lea	eax, .LC53@GOTOFF[eax]
	push	1
	mov	ebx, esi
	push	eax
	mov	DWORD PTR -384[ebp], eax
	lea	eax, _Z9codbufferB5cxx11@GOTOFF[esi]
	push	eax
	mov	DWORD PTR -368[ebp], eax
.LEHB94:
	.cfi_escape 0x2e,0x10
	call	_ZNSt7__cxx1112basic_stringIcSt11char_traitsIcESaIcEE9_M_appendEPKcj@PLT
	mov	eax, DWORD PTR -380[ebp]
	mov	edx, DWORD PTR _Z10parametersB5cxx11@GOTOFF[esi]
	lea	ebx, -164[ebp]
	add	esp, 16
	mov	ecx, DWORD PTR _Z10parametersB5cxx11@GOTOFF[esi+4]
	mov	DWORD PTR -392[ebp], ebx
	mov	eax, DWORD PTR [eax]
	mov	DWORD PTR -172[ebp], ebx
	add	ecx, edx
	mov	DWORD PTR -344[ebp], eax
	lea	edi, -1[eax]
	lea	eax, -172[ebp]
	mov	DWORD PTR -420[ebp], eax
	.cfi_escape 0x2e,0
	call	_ZNSt7__cxx1112basic_stringIcSt11char_traitsIcESaIcEE12_M_constructIPcEEvT_S7_St20forward_iterator_tag.constprop.189
	mov	edx, DWORD PTR -172[ebp]
	test	edi, edi
	jle	.L1254
	mov	eax, DWORD PTR -344[ebp]
	mov	esi, edi
	movzx	eax, BYTE PTR -1[edx+eax]
	cmp	al, 10
	jne	.L1395
	.p2align 4,,10
	.p2align 3
.L1355:
	sub	edi, 1
	je	.L1410
	movzx	eax, BYTE PTR [edx+edi]
	mov	esi, edi
	cmp	al, 10
	je	.L1355
.L1395:
	cmp	al, 32
	je	.L1355
.L1029:
	cmp	edx, DWORD PTR -392[ebp]
	je	.L1033
	sub	esp, 12
	mov	ebx, DWORD PTR -336[ebp]
	push	edx
	call	_ZdlPv@PLT
	add	esp, 16
.L1033:
	mov	ebx, DWORD PTR -336[ebp]
	lea	edx, -44[ebp]
	lea	eax, -52[ebp]
	mov	DWORD PTR -348[ebp], edx
	mov	DWORD PTR -52[ebp], edx
	mov	ecx, DWORD PTR _Z10parametersB5cxx11@GOTOFF[ebx+4]
	mov	edx, DWORD PTR _Z10parametersB5cxx11@GOTOFF[ebx]
	mov	DWORD PTR -356[ebp], eax
	add	ecx, edx
	call	_ZNSt7__cxx1112basic_stringIcSt11char_traitsIcESaIcEE12_M_constructIPcEEvT_S7_St20forward_iterator_tag.constprop.189
.LEHE94:
	mov	eax, DWORD PTR -52[ebp]
	test	edi, edi
	je	.L1255
	movzx	ecx, BYTE PTR [eax+esi]
	mov	BYTE PTR -344[ebp], cl
	cmp	cl, 10
	je	.L1034
	lea	edx, -244[ebp]
	mov	DWORD PTR -372[ebp], edx
	cmp	cl, 32
	jne	.L1035
	jmp	.L1034
	.p2align 4,,10
	.p2align 3
.L1038:
	movzx	ebx, BYTE PTR -344[ebp]
	mov	BYTE PTR [eax+esi], bl
	mov	eax, DWORD PTR -352[ebp]
	mov	DWORD PTR -240[ebp], eax
	mov	eax, DWORD PTR -244[ebp]
	mov	BYTE PTR 1[eax+esi], 0
	sub	edi, 1
	je	.L1411
	mov	eax, DWORD PTR -52[ebp]
	mov	esi, edi
	movzx	ebx, BYTE PTR [eax+edi]
	mov	BYTE PTR -344[ebp], bl
	cmp	bl, 10
	je	.L1034
	cmp	bl, 32
	je	.L1034
.L1035:
	mov	esi, DWORD PTR -240[ebp]
	mov	eax, DWORD PTR -244[ebp]
	mov	edx, 15
	cmp	eax, DWORD PTR -340[ebp]
	cmovne	edx, DWORD PTR -236[ebp]
	lea	ecx, 1[esi]
	mov	DWORD PTR -352[ebp], ecx
	cmp	ecx, edx
	jbe	.L1038
	sub	esp, 12
	mov	ebx, DWORD PTR -336[ebp]
	push	1
	push	0
	push	0
	push	esi
	push	DWORD PTR -372[ebp]
.LEHB95:
	.cfi_escape 0x2e,0x20
	call	_ZNSt7__cxx1112basic_stringIcSt11char_traitsIcESaIcEE9_M_mutateEjjPKcj@PLT
.LEHE95:
	add	esp, 32
	mov	eax, DWORD PTR -244[ebp]
	jmp	.L1038
.L1255:
	xor	esi, esi
	.p2align 4,,10
	.p2align 3
.L1034:
	cmp	eax, DWORD PTR -348[ebp]
	je	.L1040
	sub	esp, 12
	mov	ebx, DWORD PTR -336[ebp]
	push	eax
	call	_ZdlPv@PLT
	add	esp, 16
.L1040:
	mov	edx, DWORD PTR -244[ebp]
	mov	eax, DWORD PTR -240[ebp]
	add	eax, edx
	cmp	edx, eax
	je	.L1043
	sub	eax, 1
	cmp	eax, edx
	jbe	.L1043
	.p2align 4,,10
	.p2align 3
.L1044:
	movzx	ecx, BYTE PTR [edx]
	movzx	ebx, BYTE PTR [eax]
	add	edx, 1
	sub	eax, 1
	mov	BYTE PTR -1[edx], bl
	mov	BYTE PTR 1[eax], cl
	cmp	eax, edx
	ja	.L1044
.L1043:
	mov	ebx, DWORD PTR -336[ebp]
	lea	edx, -140[ebp]
	lea	eax, -148[ebp]
	mov	DWORD PTR -404[ebp], edx
	mov	DWORD PTR -148[ebp], edx
	mov	ecx, DWORD PTR _Z10parametersB5cxx11@GOTOFF[ebx+4]
	mov	edx, DWORD PTR _Z10parametersB5cxx11@GOTOFF[ebx]
	mov	DWORD PTR -424[ebp], eax
	add	ecx, edx
.LEHB96:
	.cfi_escape 0x2e,0
	call	_ZNSt7__cxx1112basic_stringIcSt11char_traitsIcESaIcEE12_M_constructIPcEEvT_S7_St20forward_iterator_tag.constprop.189
	mov	edx, DWORD PTR -148[ebp]
	test	edi, edi
	je	.L1257
	movzx	eax, BYTE PTR [edx+esi]
	cmp	al, 10
	jne	.L1396
	.p2align 4,,10
	.p2align 3
.L1356:
	sub	edi, 1
	je	.L1257
	movzx	eax, BYTE PTR [edx+edi]
	mov	esi, edi
	cmp	al, 10
	je	.L1356
.L1396:
	cmp	al, 32
	je	.L1356
.L1045:
	cmp	edx, DWORD PTR -404[ebp]
	je	.L1049
	sub	esp, 12
	mov	ebx, DWORD PTR -336[ebp]
	push	edx
	call	_ZdlPv@PLT
	add	esp, 16
.L1049:
	mov	eax, DWORD PTR -348[ebp]
	mov	DWORD PTR -52[ebp], eax
	mov	eax, DWORD PTR -336[ebp]
	mov	edx, DWORD PTR _Z10parametersB5cxx11@GOTOFF[eax]
	mov	ecx, DWORD PTR _Z10parametersB5cxx11@GOTOFF[eax+4]
	mov	eax, DWORD PTR -356[ebp]
	add	ecx, edx
	call	_ZNSt7__cxx1112basic_stringIcSt11char_traitsIcESaIcEE12_M_constructIPcEEvT_S7_St20forward_iterator_tag.constprop.189
.LEHE96:
	mov	eax, DWORD PTR -52[ebp]
	test	edi, edi
	je	.L1258
	movzx	ecx, BYTE PTR [eax+esi]
	mov	BYTE PTR -344[ebp], cl
	cmp	cl, 10
	je	.L1050
	lea	edx, -316[ebp]
	mov	DWORD PTR -372[ebp], edx
	cmp	cl, 32
	jne	.L1051
	jmp	.L1050
	.p2align 4,,10
	.p2align 3
.L1054:
	movzx	ebx, BYTE PTR -344[ebp]
	mov	BYTE PTR [eax+esi], bl
	mov	eax, DWORD PTR -352[ebp]
	mov	DWORD PTR -312[ebp], eax
	mov	eax, DWORD PTR -316[ebp]
	mov	BYTE PTR 1[eax+esi], 0
	sub	edi, 1
	je	.L1412
	mov	eax, DWORD PTR -52[ebp]
	mov	esi, edi
	movzx	ecx, BYTE PTR [eax+edi]
	mov	BYTE PTR -344[ebp], cl
	cmp	cl, 10
	je	.L1050
	cmp	cl, 32
	je	.L1050
.L1051:
	mov	esi, DWORD PTR -312[ebp]
	mov	eax, DWORD PTR -316[ebp]
	mov	edx, 15
	cmp	eax, DWORD PTR -360[ebp]
	cmovne	edx, DWORD PTR -308[ebp]
	lea	ebx, 1[esi]
	mov	DWORD PTR -352[ebp], ebx
	cmp	ebx, edx
	jbe	.L1054
	sub	esp, 12
	mov	ebx, DWORD PTR -336[ebp]
	push	1
	push	0
	push	0
	push	esi
	push	DWORD PTR -372[ebp]
.LEHB97:
	.cfi_escape 0x2e,0x20
	call	_ZNSt7__cxx1112basic_stringIcSt11char_traitsIcESaIcEE9_M_mutateEjjPKcj@PLT
.LEHE97:
	add	esp, 32
	mov	eax, DWORD PTR -316[ebp]
	jmp	.L1054
.L1258:
	xor	esi, esi
	.p2align 4,,10
	.p2align 3
.L1050:
	cmp	eax, DWORD PTR -348[ebp]
	je	.L1056
	sub	esp, 12
	mov	ebx, DWORD PTR -336[ebp]
	push	eax
	call	_ZdlPv@PLT
	add	esp, 16
.L1056:
	mov	edx, DWORD PTR -316[ebp]
	mov	eax, DWORD PTR -312[ebp]
	add	eax, edx
	cmp	edx, eax
	je	.L1059
	sub	eax, 1
	cmp	eax, edx
	jbe	.L1059
	.p2align 4,,10
	.p2align 3
.L1060:
	movzx	ecx, BYTE PTR [edx]
	movzx	ebx, BYTE PTR [eax]
	add	edx, 1
	sub	eax, 1
	mov	BYTE PTR -1[edx], bl
	mov	BYTE PTR 1[eax], cl
	cmp	eax, edx
	ja	.L1060
.L1059:
	mov	ebx, DWORD PTR -336[ebp]
	lea	edx, -116[ebp]
	lea	eax, -124[ebp]
	mov	DWORD PTR -372[ebp], edx
	mov	DWORD PTR -124[ebp], edx
	mov	ecx, DWORD PTR _Z10parametersB5cxx11@GOTOFF[ebx+4]
	mov	edx, DWORD PTR _Z10parametersB5cxx11@GOTOFF[ebx]
	mov	DWORD PTR -396[ebp], eax
	add	ecx, edx
.LEHB98:
	.cfi_escape 0x2e,0
	call	_ZNSt7__cxx1112basic_stringIcSt11char_traitsIcESaIcEE12_M_constructIPcEEvT_S7_St20forward_iterator_tag.constprop.189
	mov	edx, DWORD PTR -124[ebp]
	test	edi, edi
	je	.L1260
	movzx	eax, BYTE PTR [edx+esi]
	cmp	al, 32
	je	.L1357
	cmp	al, 10
	jne	.L1061
	.p2align 4,,10
	.p2align 3
.L1357:
	sub	edi, 1
	je	.L1260
	movzx	eax, BYTE PTR [edx+edi]
	mov	esi, edi
	cmp	al, 10
	je	.L1357
	cmp	al, 32
	je	.L1357
.L1061:
	cmp	edx, DWORD PTR -372[ebp]
	je	.L1065
	sub	esp, 12
	mov	ebx, DWORD PTR -336[ebp]
	push	edx
	call	_ZdlPv@PLT
	add	esp, 16
.L1065:
	mov	eax, DWORD PTR -348[ebp]
	mov	DWORD PTR -52[ebp], eax
	mov	eax, DWORD PTR -336[ebp]
	mov	edx, DWORD PTR _Z10parametersB5cxx11@GOTOFF[eax]
	mov	ecx, DWORD PTR _Z10parametersB5cxx11@GOTOFF[eax+4]
	mov	eax, DWORD PTR -356[ebp]
	add	ecx, edx
	call	_ZNSt7__cxx1112basic_stringIcSt11char_traitsIcESaIcEE12_M_constructIPcEEvT_S7_St20forward_iterator_tag.constprop.189
.LEHE98:
	mov	eax, DWORD PTR -52[ebp]
	test	edi, edi
	je	.L1261
	movzx	ecx, BYTE PTR [eax+esi]
	mov	BYTE PTR -344[ebp], cl
	cmp	cl, 32
	je	.L1066
	lea	edx, -244[ebp]
	mov	DWORD PTR -376[ebp], edx
	cmp	cl, 10
	jne	.L1067
	jmp	.L1066
	.p2align 4,,10
	.p2align 3
.L1070:
	movzx	ebx, BYTE PTR -344[ebp]
	mov	BYTE PTR [eax+esi], bl
	mov	eax, DWORD PTR -352[ebp]
	mov	DWORD PTR -240[ebp], eax
	mov	eax, DWORD PTR -244[ebp]
	mov	BYTE PTR 1[eax+esi], 0
	sub	edi, 1
	je	.L1413
	mov	eax, DWORD PTR -52[ebp]
	mov	esi, edi
	movzx	ebx, BYTE PTR [eax+edi]
	mov	BYTE PTR -344[ebp], bl
	cmp	bl, 10
	je	.L1066
	cmp	bl, 32
	je	.L1066
.L1067:
	mov	esi, DWORD PTR -240[ebp]
	mov	eax, DWORD PTR -244[ebp]
	mov	edx, 15
	cmp	eax, DWORD PTR -340[ebp]
	cmovne	edx, DWORD PTR -236[ebp]
	lea	ecx, 1[esi]
	mov	DWORD PTR -352[ebp], ecx
	cmp	ecx, edx
	jbe	.L1070
	sub	esp, 12
	mov	ebx, DWORD PTR -336[ebp]
	push	1
	push	0
	push	0
	push	esi
	push	DWORD PTR -376[ebp]
.LEHB99:
	.cfi_escape 0x2e,0x20
	call	_ZNSt7__cxx1112basic_stringIcSt11char_traitsIcESaIcEE9_M_mutateEjjPKcj@PLT
.LEHE99:
	add	esp, 32
	mov	eax, DWORD PTR -244[ebp]
	jmp	.L1070
.L1261:
	xor	esi, esi
	.p2align 4,,10
	.p2align 3
.L1066:
	cmp	eax, DWORD PTR -348[ebp]
	je	.L1072
	sub	esp, 12
	mov	ebx, DWORD PTR -336[ebp]
	push	eax
	call	_ZdlPv@PLT
	add	esp, 16
.L1072:
	mov	edx, DWORD PTR -244[ebp]
	mov	eax, DWORD PTR -240[ebp]
	add	eax, edx
	cmp	edx, eax
	je	.L1075
	sub	eax, 1
	cmp	eax, edx
	jbe	.L1075
	.p2align 4,,10
	.p2align 3
.L1076:
	movzx	ecx, BYTE PTR [edx]
	movzx	ebx, BYTE PTR [eax]
	add	edx, 1
	sub	eax, 1
	mov	BYTE PTR -1[edx], bl
	mov	BYTE PTR 1[eax], cl
	cmp	eax, edx
	ja	.L1076
.L1075:
	mov	ebx, DWORD PTR -336[ebp]
	lea	edx, -92[ebp]
	lea	eax, -100[ebp]
	mov	DWORD PTR -376[ebp], edx
	mov	DWORD PTR -100[ebp], edx
	mov	ecx, DWORD PTR _Z10parametersB5cxx11@GOTOFF[ebx+4]
	mov	edx, DWORD PTR _Z10parametersB5cxx11@GOTOFF[ebx]
	mov	DWORD PTR -400[ebp], eax
	add	ecx, edx
.LEHB100:
	.cfi_escape 0x2e,0
	call	_ZNSt7__cxx1112basic_stringIcSt11char_traitsIcESaIcEE12_M_constructIPcEEvT_S7_St20forward_iterator_tag.constprop.189
	mov	edx, DWORD PTR -100[ebp]
	test	edi, edi
	je	.L1263
	movzx	eax, BYTE PTR [edx+esi]
	cmp	al, 32
	jne	.L1397
	.p2align 4,,10
	.p2align 3
.L1358:
	sub	edi, 1
	je	.L1263
	movzx	eax, BYTE PTR [edx+edi]
	mov	esi, edi
	cmp	al, 32
	je	.L1358
.L1397:
	cmp	al, 10
	je	.L1358
.L1077:
	cmp	edx, DWORD PTR -376[ebp]
	je	.L1081
	sub	esp, 12
	mov	ebx, DWORD PTR -336[ebp]
	push	edx
	call	_ZdlPv@PLT
	add	esp, 16
.L1081:
	mov	eax, DWORD PTR -348[ebp]
	mov	DWORD PTR -52[ebp], eax
	mov	eax, DWORD PTR -336[ebp]
	mov	edx, DWORD PTR _Z10parametersB5cxx11@GOTOFF[eax]
	mov	ecx, DWORD PTR _Z10parametersB5cxx11@GOTOFF[eax+4]
	mov	eax, DWORD PTR -356[ebp]
	add	ecx, edx
	call	_ZNSt7__cxx1112basic_stringIcSt11char_traitsIcESaIcEE12_M_constructIPcEEvT_S7_St20forward_iterator_tag.constprop.189
.LEHE100:
	mov	eax, DWORD PTR -52[ebp]
	test	edi, edi
	je	.L1082
	movzx	edx, BYTE PTR [eax+esi]
	mov	BYTE PTR -344[ebp], dl
	cmp	dl, 32
	je	.L1082
	lea	esi, -268[ebp]
	mov	DWORD PTR -388[ebp], esi
	cmp	dl, 10
	jne	.L1083
	jmp	.L1082
	.p2align 4,,10
	.p2align 3
.L1086:
	movzx	ebx, BYTE PTR -344[ebp]
	mov	BYTE PTR [eax+esi], bl
	mov	eax, DWORD PTR -352[ebp]
	mov	DWORD PTR -264[ebp], eax
	mov	eax, DWORD PTR -268[ebp]
	mov	BYTE PTR 1[eax+esi], 0
	mov	eax, DWORD PTR -52[ebp]
	sub	edi, 1
	je	.L1082
	movzx	ecx, BYTE PTR [eax+edi]
	mov	BYTE PTR -344[ebp], cl
	cmp	cl, 32
	je	.L1082
	cmp	cl, 10
	je	.L1082
.L1083:
	mov	esi, DWORD PTR -264[ebp]
	mov	eax, DWORD PTR -268[ebp]
	mov	edx, 15
	cmp	eax, DWORD PTR -364[ebp]
	cmovne	edx, DWORD PTR -260[ebp]
	lea	ebx, 1[esi]
	mov	DWORD PTR -352[ebp], ebx
	cmp	ebx, edx
	jbe	.L1086
	sub	esp, 12
	mov	ebx, DWORD PTR -336[ebp]
	push	1
	push	0
	push	0
	push	esi
	push	DWORD PTR -388[ebp]
.LEHB101:
	.cfi_escape 0x2e,0x20
	call	_ZNSt7__cxx1112basic_stringIcSt11char_traitsIcESaIcEE9_M_mutateEjjPKcj@PLT
.LEHE101:
	add	esp, 32
	mov	eax, DWORD PTR -268[ebp]
	jmp	.L1086
	.p2align 4,,10
	.p2align 3
.L1082:
	cmp	eax, DWORD PTR -348[ebp]
	je	.L1088
	sub	esp, 12
	mov	ebx, DWORD PTR -336[ebp]
	push	eax
	call	_ZdlPv@PLT
	add	esp, 16
.L1088:
	mov	edx, DWORD PTR -268[ebp]
	mov	eax, DWORD PTR -264[ebp]
	add	eax, edx
	cmp	edx, eax
	je	.L1091
	sub	eax, 1
	cmp	eax, edx
	jbe	.L1091
	.p2align 4,,10
	.p2align 3
.L1092:
	movzx	ecx, BYTE PTR [edx]
	movzx	ebx, BYTE PTR [eax]
	add	edx, 1
	sub	eax, 1
	mov	BYTE PTR -1[edx], bl
	mov	BYTE PTR 1[eax], cl
	cmp	eax, edx
	ja	.L1092
.L1091:
	mov	eax, DWORD PTR -380[ebp]
	mov	esi, DWORD PTR [eax]
	mov	eax, DWORD PTR -348[ebp]
	mov	DWORD PTR -52[ebp], eax
	mov	eax, DWORD PTR -336[ebp]
	mov	edx, DWORD PTR _Z10parametersB5cxx11@GOTOFF[eax]
	mov	ecx, DWORD PTR _Z10parametersB5cxx11@GOTOFF[eax+4]
	mov	eax, DWORD PTR -356[ebp]
	add	ecx, edx
.LEHB102:
	.cfi_escape 0x2e,0
	call	_ZNSt7__cxx1112basic_stringIcSt11char_traitsIcESaIcEE12_M_constructIPcEEvT_S7_St20forward_iterator_tag.constprop.189
.LEHE102:
	mov	edx, DWORD PTR -356[ebp]
	lea	eax, -292[ebp]
	mov	ecx, esi
.LEHB103:
	call	_Z7getWordcRNSt7__cxx1112basic_stringIcSt11char_traitsIcESaIcEEES4_i.part.80.constprop.183
.LEHE103:
	mov	edi, DWORD PTR -380[ebp]
	mov	DWORD PTR [edi], eax
	mov	eax, DWORD PTR -52[ebp]
	cmp	eax, DWORD PTR -348[ebp]
	je	.L1093
	sub	esp, 12
	mov	ebx, DWORD PTR -336[ebp]
	push	eax
	call	_ZdlPv@PLT
	add	esp, 16
.L1093:
	mov	eax, DWORD PTR -348[ebp]
	mov	edx, DWORD PTR -316[ebp]
	mov	ecx, DWORD PTR -312[ebp]
	mov	esi, DWORD PTR -356[ebp]
	mov	DWORD PTR -52[ebp], eax
	add	ecx, edx
	mov	eax, esi
.LEHB104:
	call	_ZNSt7__cxx1112basic_stringIcSt11char_traitsIcESaIcEE12_M_constructIPcEEvT_S7_St20forward_iterator_tag.constprop.189
.LEHE104:
	lea	edi, -76[ebp]
	mov	edx, esi
	mov	eax, edi
	mov	DWORD PTR -344[ebp], edi
.LEHB105:
	call	_Z8autoNameNSt7__cxx1112basic_stringIcSt11char_traitsIcESaIcEEEb.constprop.186
.LEHE105:
	lea	eax, -332[ebp]
	mov	edx, edi
	lea	edi, -68[ebp]
	mov	DWORD PTR -380[ebp], eax
	call	_ZNSt8_Rb_treeINSt7__cxx1112basic_stringIcSt11char_traitsIcESaIcEEESt4pairIKS5_S5_ESt10_Select1stIS8_ESt4lessIS5_ESaIS8_EE4findERS7_.constprop.184
	mov	eax, DWORD PTR -332[ebp]
	mov	DWORD PTR -352[ebp], eax
	mov	eax, DWORD PTR -76[ebp]
	cmp	eax, edi
	je	.L1094
	sub	esp, 12
	mov	ebx, DWORD PTR -336[ebp]
	push	eax
	call	_ZdlPv@PLT
	add	esp, 16
.L1094:
	mov	eax, DWORD PTR -52[ebp]
	cmp	eax, DWORD PTR -348[ebp]
	je	.L1095
	sub	esp, 12
	mov	ebx, DWORD PTR -336[ebp]
	push	eax
	call	_ZdlPv@PLT
	add	esp, 16
.L1095:
	mov	ebx, DWORD PTR -336[ebp]
	lea	esi, _Z11varPointersB5cxx11@GOTOFF[ebx+4]
	cmp	DWORD PTR -352[ebp], esi
	je	.L1096
	mov	edx, DWORD PTR -292[ebp]
	mov	ecx, DWORD PTR -288[ebp]
	mov	DWORD PTR -76[ebp], edi
	mov	eax, DWORD PTR -344[ebp]
	add	ecx, edx
.LEHB106:
	call	_ZNSt7__cxx1112basic_stringIcSt11char_traitsIcESaIcEE12_M_constructIPcEEvT_S7_St20forward_iterator_tag.constprop.189
.LEHE106:
	mov	edx, DWORD PTR -344[ebp]
	mov	eax, DWORD PTR -356[ebp]
.LEHB107:
	call	_Z8autoNameNSt7__cxx1112basic_stringIcSt11char_traitsIcESaIcEEEb.constprop.186
.LEHE107:
	mov	eax, DWORD PTR -380[ebp]
	mov	edx, DWORD PTR -356[ebp]
	call	_ZNSt8_Rb_treeINSt7__cxx1112basic_stringIcSt11char_traitsIcESaIcEEESt4pairIKS5_S5_ESt10_Select1stIS8_ESt4lessIS5_ESaIS8_EE4findERS7_.constprop.184
	mov	eax, DWORD PTR -332[ebp]
	mov	DWORD PTR -380[ebp], eax
	mov	eax, DWORD PTR -52[ebp]
	cmp	eax, DWORD PTR -348[ebp]
	je	.L1097
	sub	esp, 12
	push	eax
	call	_ZdlPv@PLT
	add	esp, 16
.L1097:
	mov	eax, DWORD PTR -76[ebp]
	cmp	eax, edi
	je	.L1098
	sub	esp, 12
	mov	ebx, DWORD PTR -336[ebp]
	push	eax
	call	_ZdlPv@PLT
	add	esp, 16
.L1098:
	mov	eax, DWORD PTR -380[ebp]
	cmp	eax, esi
	je	.L1099
	mov	ebx, DWORD PTR -336[ebp]
	sub	esp, 8
	lea	esi, 40[eax]
	lea	eax, .LC10@GOTOFF[ebx]
	push	eax
	push	esi
	mov	DWORD PTR -388[ebp], eax
	call	_ZNKSt7__cxx1112basic_stringIcSt11char_traitsIcESaIcEE7compareEPKc@PLT
	add	esp, 16
	test	eax, eax
	je	.L1100
	mov	ebx, DWORD PTR -336[ebp]
	sub	esp, 8
	lea	eax, .LC54@GOTOFF[ebx]
	push	eax
	push	DWORD PTR -368[ebp]
.LEHB108:
	.cfi_escape 0x2e,0x10
	call	_ZNSt7__cxx1112basic_stringIcSt11char_traitsIcESaIcEE6appendEPKc@PLT
	mov	ebx, DWORD PTR -336[ebp]
	add	esp, 12
	push	esi
	lea	eax, .LC55@GOTOFF[ebx]
	push	eax
	push	DWORD PTR -344[ebp]
	call	_ZStplIcSt11char_traitsIcESaIcEENSt7__cxx1112basic_stringIT_T0_T1_EEPKS5_RKS8_
.LEHE108:
	pop	eax
	push	DWORD PTR -384[ebp]
	push	DWORD PTR -344[ebp]
	mov	DWORD PTR -336[ebp], ebx
.LEHB109:
	call	_ZNSt7__cxx1112basic_stringIcSt11char_traitsIcESaIcEE6appendEPKc@PLT
.LEHE109:
	pop	edx
	pop	ecx
	push	eax
	push	DWORD PTR -356[ebp]
	mov	ebx, DWORD PTR -336[ebp]
	call	_ZNSt7__cxx1112basic_stringIcSt11char_traitsIcESaIcEEC1EOS4_@PLT
	add	esp, 12
	push	DWORD PTR -48[ebp]
	mov	ebx, DWORD PTR -336[ebp]
	push	DWORD PTR -52[ebp]
	push	DWORD PTR -368[ebp]
.LEHB110:
	call	_ZNSt7__cxx1112basic_stringIcSt11char_traitsIcESaIcEE9_M_appendEPKcj@PLT
.LEHE110:
	add	esp, 16
	mov	eax, DWORD PTR -52[ebp]
	cmp	eax, DWORD PTR -348[ebp]
	je	.L1101
	sub	esp, 12
	mov	ebx, DWORD PTR -336[ebp]
	push	eax
	call	_ZdlPv@PLT
	add	esp, 16
.L1101:
	mov	eax, DWORD PTR -76[ebp]
	cmp	eax, edi
	je	.L1100
	sub	esp, 12
	mov	ebx, DWORD PTR -336[ebp]
	push	eax
	call	_ZdlPv@PLT
	add	esp, 16
.L1100:
	mov	eax, DWORD PTR -352[ebp]
	sub	esp, 4
	add	eax, 40
	push	eax
	mov	eax, DWORD PTR -336[ebp]
	lea	eax, .LC56@GOTOFF[eax]
	push	eax
	push	DWORD PTR -344[ebp]
.LEHB111:
	call	_ZStplIcSt11char_traitsIcESaIcEENSt7__cxx1112basic_stringIT_T0_T1_EEPKS5_RKS8_
.LEHE111:
	add	esp, 12
	cmp	DWORD PTR -72[ebp], 2147483647
	je	.L1414
	sub	esp, 4
	mov	ebx, DWORD PTR -336[ebp]
	push	1
	push	DWORD PTR -384[ebp]
	push	DWORD PTR -344[ebp]
.LEHB112:
	call	_ZNSt7__cxx1112basic_stringIcSt11char_traitsIcESaIcEE9_M_appendEPKcj@PLT
.LEHE112:
	mov	edx, DWORD PTR -348[ebp]
	add	esp, 16
	mov	DWORD PTR -52[ebp], edx
	mov	ecx, DWORD PTR [eax]
	lea	edx, 8[eax]
	cmp	ecx, edx
	je	.L1415
	mov	DWORD PTR -52[ebp], ecx
	mov	ecx, DWORD PTR 8[eax]
	mov	DWORD PTR -44[ebp], ecx
.L1105:
	mov	ecx, DWORD PTR 4[eax]
	sub	esp, 4
	mov	ebx, DWORD PTR -336[ebp]
	mov	DWORD PTR -48[ebp], ecx
	mov	DWORD PTR [eax], edx
	mov	DWORD PTR 4[eax], 0
	mov	BYTE PTR 8[eax], 0
	push	DWORD PTR -48[ebp]
	push	DWORD PTR -52[ebp]
	push	DWORD PTR -368[ebp]
.LEHB113:
	call	_ZNSt7__cxx1112basic_stringIcSt11char_traitsIcESaIcEE9_M_appendEPKcj@PLT
.LEHE113:
	add	esp, 16
	mov	eax, DWORD PTR -52[ebp]
	cmp	eax, DWORD PTR -348[ebp]
	je	.L1106
	sub	esp, 12
	mov	ebx, DWORD PTR -336[ebp]
	push	eax
	call	_ZdlPv@PLT
	add	esp, 16
.L1106:
	mov	eax, DWORD PTR -76[ebp]
	cmp	eax, edi
	je	.L1107
	sub	esp, 12
	mov	ebx, DWORD PTR -336[ebp]
	push	eax
	call	_ZdlPv@PLT
	add	esp, 16
.L1107:
	sub	esp, 8
	push	DWORD PTR -388[ebp]
	mov	ebx, DWORD PTR -336[ebp]
	push	esi
	call	_ZNKSt7__cxx1112basic_stringIcSt11char_traitsIcESaIcEE7compareEPKc@PLT
	add	esp, 16
	test	eax, eax
	je	.L1108
	mov	ebx, DWORD PTR -336[ebp]
	sub	esp, 4
	push	esi
	lea	eax, .LC57@GOTOFF[ebx]
	push	eax
	push	DWORD PTR -344[ebp]
.LEHB114:
	call	_ZStplIcSt11char_traitsIcESaIcEENSt7__cxx1112basic_stringIT_T0_T1_EEPKS5_RKS8_
.LEHE114:
	pop	eax
	push	DWORD PTR -384[ebp]
	push	DWORD PTR -344[ebp]
	mov	DWORD PTR -336[ebp], ebx
.LEHB115:
	call	_ZNSt7__cxx1112basic_stringIcSt11char_traitsIcESaIcEE6appendEPKc@PLT
.LEHE115:
	pop	edx
	pop	ecx
	push	eax
	push	DWORD PTR -356[ebp]
	mov	ebx, DWORD PTR -336[ebp]
	call	_ZNSt7__cxx1112basic_stringIcSt11char_traitsIcESaIcEEC1EOS4_@PLT
	add	esp, 12
	push	DWORD PTR -48[ebp]
	mov	ebx, DWORD PTR -336[ebp]
	push	DWORD PTR -52[ebp]
	push	DWORD PTR -368[ebp]
.LEHB116:
	call	_ZNSt7__cxx1112basic_stringIcSt11char_traitsIcESaIcEE9_M_appendEPKcj@PLT
.LEHE116:
	add	esp, 16
	mov	eax, DWORD PTR -52[ebp]
	cmp	eax, DWORD PTR -348[ebp]
	je	.L1109
	sub	esp, 12
	mov	ebx, DWORD PTR -336[ebp]
	push	eax
	call	_ZdlPv@PLT
	add	esp, 16
.L1109:
	mov	eax, DWORD PTR -76[ebp]
	cmp	eax, edi
	je	.L1110
	sub	esp, 12
	mov	ebx, DWORD PTR -336[ebp]
	push	eax
	call	_ZdlPv@PLT
	add	esp, 16
.L1110:
	sub	esp, 4
	mov	ebx, DWORD PTR -344[ebp]
	push	esi
	mov	esi, DWORD PTR -336[ebp]
	lea	eax, .LC58@GOTOFF[esi]
	push	eax
	push	ebx
.LEHB117:
	call	_ZStplIcSt11char_traitsIcESaIcEENSt7__cxx1112basic_stringIT_T0_T1_EEPKS5_RKS8_
.LEHE117:
	pop	eax
	push	DWORD PTR -384[ebp]
	push	ebx
	mov	ebx, esi
.LEHB118:
	call	_ZNSt7__cxx1112basic_stringIcSt11char_traitsIcESaIcEE6appendEPKc@PLT
.LEHE118:
	pop	ecx
	pop	esi
	push	eax
	push	DWORD PTR -356[ebp]
	call	_ZNSt7__cxx1112basic_stringIcSt11char_traitsIcESaIcEEC1EOS4_@PLT
	add	esp, 12
	push	DWORD PTR -48[ebp]
	push	DWORD PTR -52[ebp]
	push	DWORD PTR -368[ebp]
.LEHB119:
	call	_ZNSt7__cxx1112basic_stringIcSt11char_traitsIcESaIcEE9_M_appendEPKcj@PLT
.LEHE119:
	add	esp, 16
	mov	eax, DWORD PTR -52[ebp]
	cmp	eax, DWORD PTR -348[ebp]
	je	.L1111
	sub	esp, 12
	push	eax
	call	_ZdlPv@PLT
	add	esp, 16
.L1111:
	mov	eax, DWORD PTR -76[ebp]
	cmp	eax, edi
	je	.L1108
	sub	esp, 12
	mov	ebx, DWORD PTR -336[ebp]
	push	eax
	call	_ZdlPv@PLT
	add	esp, 16
.L1108:
	mov	eax, DWORD PTR -392[ebp]
	mov	edx, DWORD PTR -268[ebp]
	mov	ecx, DWORD PTR -264[ebp]
	mov	esi, DWORD PTR -420[ebp]
	mov	DWORD PTR -172[ebp], eax
	add	ecx, edx
	mov	eax, esi
.LEHB120:
	.cfi_escape 0x2e,0
	call	_ZNSt7__cxx1112basic_stringIcSt11char_traitsIcESaIcEE12_M_constructIPcEEvT_S7_St20forward_iterator_tag.constprop.189
.LEHE120:
	mov	edx, esi
	mov	esi, DWORD PTR -424[ebp]
	mov	eax, esi
.LEHB121:
	call	_Z8autoNameNSt7__cxx1112basic_stringIcSt11char_traitsIcESaIcEEEb.constprop.186
.LEHE121:
	mov	ebx, DWORD PTR -336[ebp]
	sub	esp, 12
	push	5
	lea	eax, .LC59@GOTOFF[ebx]
	push	eax
	push	0
	push	0
	push	esi
.LEHB122:
	.cfi_escape 0x2e,0x20
	call	_ZNSt7__cxx1112basic_stringIcSt11char_traitsIcESaIcEE10_M_replaceEjjPKcj@PLT
.LEHE122:
	mov	esi, DWORD PTR -372[ebp]
	lea	edx, 8[eax]
	add	esp, 32
	mov	DWORD PTR -124[ebp], esi
	mov	ecx, DWORD PTR [eax]
	cmp	ecx, edx
	je	.L1416
	mov	DWORD PTR -124[ebp], ecx
	mov	ecx, DWORD PTR 8[eax]
	mov	DWORD PTR -116[ebp], ecx
.L1114:
	mov	ecx, DWORD PTR 4[eax]
	mov	DWORD PTR -120[ebp], ecx
	mov	DWORD PTR [eax], edx
	mov	DWORD PTR 4[eax], 0
	mov	BYTE PTR 8[eax], 0
	mov	eax, 2147483647
	sub	eax, DWORD PTR -120[ebp]
	cmp	eax, 2
	jbe	.L1417
	mov	ebx, DWORD PTR -336[ebp]
	sub	esp, 4
	push	3
	lea	eax, .LC60@GOTOFF[ebx]
	push	eax
	push	DWORD PTR -396[ebp]
.LEHB123:
	.cfi_escape 0x2e,0x10
	call	_ZNSt7__cxx1112basic_stringIcSt11char_traitsIcESaIcEE9_M_appendEPKcj@PLT
.LEHE123:
	mov	esi, DWORD PTR -376[ebp]
	lea	edx, 8[eax]
	add	esp, 16
	mov	DWORD PTR -100[ebp], esi
	mov	ecx, DWORD PTR [eax]
	cmp	ecx, edx
	je	.L1418
	mov	DWORD PTR -100[ebp], ecx
	mov	ecx, DWORD PTR 8[eax]
	mov	DWORD PTR -92[ebp], ecx
.L1117:
	mov	ecx, DWORD PTR 4[eax]
	sub	esp, 4
	mov	ebx, DWORD PTR -336[ebp]
	mov	DWORD PTR -96[ebp], ecx
	mov	DWORD PTR [eax], edx
	mov	DWORD PTR 4[eax], 0
	mov	BYTE PTR 8[eax], 0
	mov	eax, DWORD PTR -380[ebp]
	push	DWORD PTR 44[eax]
	push	DWORD PTR 40[eax]
	push	DWORD PTR -400[ebp]
.LEHB124:
	call	_ZNSt7__cxx1112basic_stringIcSt11char_traitsIcESaIcEE9_M_appendEPKcj@PLT
.LEHE124:
	mov	DWORD PTR -76[ebp], edi
	mov	ecx, DWORD PTR [eax]
	lea	edx, 8[eax]
	add	esp, 16
	cmp	ecx, edx
	je	.L1419
	mov	DWORD PTR -76[ebp], ecx
	mov	ecx, DWORD PTR 8[eax]
	mov	DWORD PTR -68[ebp], ecx
.L1119:
	mov	ecx, DWORD PTR 4[eax]
	mov	DWORD PTR -72[ebp], ecx
	mov	DWORD PTR [eax], edx
	mov	DWORD PTR 4[eax], 0
	mov	BYTE PTR 8[eax], 0
	cmp	DWORD PTR -72[ebp], 2147483647
	je	.L1420
	sub	esp, 4
	mov	ebx, DWORD PTR -336[ebp]
	push	1
	push	DWORD PTR -384[ebp]
	push	DWORD PTR -344[ebp]
.LEHB125:
	call	_ZNSt7__cxx1112basic_stringIcSt11char_traitsIcESaIcEE9_M_appendEPKcj@PLT
.LEHE125:
	mov	esi, DWORD PTR -348[ebp]
	lea	edx, 8[eax]
	add	esp, 16
	mov	DWORD PTR -52[ebp], esi
	mov	ecx, DWORD PTR [eax]
	cmp	ecx, edx
	je	.L1421
	mov	DWORD PTR -52[ebp], ecx
	mov	ecx, DWORD PTR 8[eax]
	mov	DWORD PTR -44[ebp], ecx
.L1122:
	mov	ecx, DWORD PTR 4[eax]
	sub	esp, 4
	mov	esi, DWORD PTR -336[ebp]
	mov	DWORD PTR -48[ebp], ecx
	mov	ebx, esi
	mov	DWORD PTR [eax], edx
	mov	DWORD PTR 4[eax], 0
	mov	BYTE PTR 8[eax], 0
	push	DWORD PTR -48[ebp]
	push	DWORD PTR -52[ebp]
	push	DWORD PTR -368[ebp]
.LEHB126:
	call	_ZNSt7__cxx1112basic_stringIcSt11char_traitsIcESaIcEE9_M_appendEPKcj@PLT
.LEHE126:
	add	esp, 16
	mov	eax, DWORD PTR -52[ebp]
	cmp	eax, DWORD PTR -348[ebp]
	je	.L1123
	sub	esp, 12
	push	eax
	call	_ZdlPv@PLT
	add	esp, 16
.L1123:
	mov	eax, DWORD PTR -76[ebp]
	cmp	eax, edi
	je	.L1124
	sub	esp, 12
	mov	ebx, DWORD PTR -336[ebp]
	push	eax
	call	_ZdlPv@PLT
	add	esp, 16
.L1124:
	mov	eax, DWORD PTR -100[ebp]
	cmp	eax, DWORD PTR -376[ebp]
	je	.L1125
	sub	esp, 12
	mov	ebx, DWORD PTR -336[ebp]
	push	eax
	call	_ZdlPv@PLT
	add	esp, 16
.L1125:
	mov	eax, DWORD PTR -124[ebp]
	cmp	eax, DWORD PTR -372[ebp]
	je	.L1126
	sub	esp, 12
	mov	ebx, DWORD PTR -336[ebp]
	push	eax
	call	_ZdlPv@PLT
	add	esp, 16
.L1126:
	mov	eax, DWORD PTR -148[ebp]
	cmp	eax, DWORD PTR -404[ebp]
	je	.L1127
	sub	esp, 12
	mov	ebx, DWORD PTR -336[ebp]
	push	eax
	call	_ZdlPv@PLT
	add	esp, 16
.L1127:
	mov	eax, DWORD PTR -172[ebp]
	cmp	eax, DWORD PTR -392[ebp]
	je	.L1129
	sub	esp, 12
	mov	ebx, DWORD PTR -336[ebp]
	push	eax
	call	_ZdlPv@PLT
	add	esp, 16
.L1129:
	mov	eax, DWORD PTR -336[ebp]
	cmp	DWORD PTR _Z9codbufferB5cxx11@GOTOFF[eax+4], 2147483647
	je	.L1422
	sub	esp, 4
	mov	ebx, eax
	push	1
	push	DWORD PTR -384[ebp]
	push	DWORD PTR -368[ebp]
.LEHB127:
	call	_ZNSt7__cxx1112basic_stringIcSt11char_traitsIcESaIcEE9_M_appendEPKcj@PLT
	add	esp, 16
	mov	eax, DWORD PTR -196[ebp]
	cmp	eax, DWORD PTR -416[ebp]
	je	.L1154
	sub	esp, 12
	push	eax
	call	_ZdlPv@PLT
	add	esp, 16
.L1154:
	mov	eax, DWORD PTR -220[ebp]
	cmp	eax, DWORD PTR -412[ebp]
	je	.L1155
	sub	esp, 12
	mov	ebx, DWORD PTR -336[ebp]
	push	eax
	call	_ZdlPv@PLT
	add	esp, 16
.L1155:
	mov	eax, DWORD PTR -244[ebp]
	cmp	eax, DWORD PTR -340[ebp]
	je	.L1156
	sub	esp, 12
	mov	ebx, DWORD PTR -336[ebp]
	push	eax
	call	_ZdlPv@PLT
	add	esp, 16
.L1156:
	mov	eax, DWORD PTR -268[ebp]
	cmp	eax, DWORD PTR -364[ebp]
	je	.L1157
	sub	esp, 12
	mov	ebx, DWORD PTR -336[ebp]
	push	eax
	call	_ZdlPv@PLT
	add	esp, 16
.L1157:
	mov	eax, DWORD PTR -292[ebp]
	cmp	eax, DWORD PTR -408[ebp]
	je	.L1158
	sub	esp, 12
	mov	ebx, DWORD PTR -336[ebp]
	push	eax
	call	_ZdlPv@PLT
	add	esp, 16
.L1158:
	mov	eax, DWORD PTR -316[ebp]
	cmp	eax, DWORD PTR -360[ebp]
	je	.L1027
	sub	esp, 12
	mov	ebx, DWORD PTR -336[ebp]
	push	eax
	call	_ZdlPv@PLT
	add	esp, 16
.L1027:
	mov	eax, DWORD PTR -28[ebp]
	xor	eax, DWORD PTR gs:20
	jne	.L1423
	lea	esp, -12[ebp]
	pop	ebx
	.cfi_remember_state
	.cfi_restore 3
	pop	esi
	.cfi_restore 6
	pop	edi
	.cfi_restore 7
	pop	ebp
	.cfi_restore 5
	.cfi_def_cfa 4, 4
	ret
	.p2align 4,,10
	.p2align 3
.L1263:
	.cfi_restore_state
	xor	esi, esi
	jmp	.L1077
	.p2align 4,,10
	.p2align 3
.L1260:
	xor	esi, esi
	jmp	.L1061
	.p2align 4,,10
	.p2align 3
.L1257:
	xor	esi, esi
	jmp	.L1045
	.p2align 4,,10
	.p2align 3
.L1410:
	xor	esi, esi
	jmp	.L1029
	.p2align 4,,10
	.p2align 3
.L1099:
	mov	esi, DWORD PTR -336[ebp]
	sub	esp, 8
	lea	eax, .LC54@GOTOFF[esi]
	mov	ebx, esi
	push	eax
	push	DWORD PTR -368[ebp]
	call	_ZNSt7__cxx1112basic_stringIcSt11char_traitsIcESaIcEE6appendEPKc@PLT
	mov	eax, DWORD PTR -372[ebp]
	mov	edx, DWORD PTR -292[ebp]
	add	esp, 16
	mov	ecx, DWORD PTR -288[ebp]
	mov	ebx, DWORD PTR -396[ebp]
	mov	DWORD PTR -124[ebp], eax
	add	ecx, edx
	mov	eax, ebx
	.cfi_escape 0x2e,0
	call	_ZNSt7__cxx1112basic_stringIcSt11char_traitsIcESaIcEE12_M_constructIPcEEvT_S7_St20forward_iterator_tag.constprop.189
.LEHE127:
	mov	edx, ebx
	mov	ebx, DWORD PTR -400[ebp]
	mov	eax, ebx
.LEHB128:
	call	_Z8autoNameNSt7__cxx1112basic_stringIcSt11char_traitsIcESaIcEEEb.constprop.186
.LEHE128:
	sub	esp, 12
	lea	eax, .LC61@GOTOFF[esi]
	push	16
	push	eax
	push	0
	push	0
	push	ebx
	mov	ebx, esi
.LEHB129:
	.cfi_escape 0x2e,0x20
	call	_ZNSt7__cxx1112basic_stringIcSt11char_traitsIcESaIcEE10_M_replaceEjjPKcj@PLT
.LEHE129:
	add	esp, 24
	push	eax
	push	DWORD PTR -344[ebp]
	call	_ZNSt7__cxx1112basic_stringIcSt11char_traitsIcESaIcEEC1EOS4_@PLT
	pop	eax
	lea	eax, .LC45@GOTOFF[esi]
	pop	edx
	push	eax
	push	DWORD PTR -344[ebp]
.LEHB130:
	.cfi_escape 0x2e,0x10
	call	_ZNSt7__cxx1112basic_stringIcSt11char_traitsIcESaIcEE6appendEPKc@PLT
.LEHE130:
	pop	edx
	pop	ecx
	push	eax
	push	DWORD PTR -356[ebp]
	call	_ZNSt7__cxx1112basic_stringIcSt11char_traitsIcESaIcEEC1EOS4_@PLT
	add	esp, 12
	push	DWORD PTR -48[ebp]
	push	DWORD PTR -52[ebp]
	push	DWORD PTR -368[ebp]
.LEHB131:
	call	_ZNSt7__cxx1112basic_stringIcSt11char_traitsIcESaIcEE9_M_appendEPKcj@PLT
.LEHE131:
	add	esp, 16
	mov	eax, DWORD PTR -52[ebp]
	cmp	eax, DWORD PTR -348[ebp]
	je	.L1130
	sub	esp, 12
	push	eax
	call	_ZdlPv@PLT
	add	esp, 16
.L1130:
	mov	eax, DWORD PTR -76[ebp]
	cmp	eax, edi
	je	.L1131
	sub	esp, 12
	mov	ebx, DWORD PTR -336[ebp]
	push	eax
	call	_ZdlPv@PLT
	add	esp, 16
.L1131:
	mov	eax, DWORD PTR -100[ebp]
	cmp	eax, DWORD PTR -376[ebp]
	je	.L1132
	sub	esp, 12
	mov	ebx, DWORD PTR -336[ebp]
	push	eax
	call	_ZdlPv@PLT
	add	esp, 16
.L1132:
	mov	eax, DWORD PTR -124[ebp]
	cmp	eax, DWORD PTR -372[ebp]
	je	.L1133
	sub	esp, 12
	mov	ebx, DWORD PTR -336[ebp]
	push	eax
	call	_ZdlPv@PLT
	add	esp, 16
.L1133:
	mov	eax, DWORD PTR -352[ebp]
	mov	esi, DWORD PTR -336[ebp]
	sub	esp, 4
	mov	ebx, DWORD PTR -344[ebp]
	add	eax, 40
	push	eax
	lea	eax, .LC56@GOTOFF[esi]
	push	eax
	push	ebx
.LEHB132:
	call	_ZStplIcSt11char_traitsIcESaIcEENSt7__cxx1112basic_stringIT_T0_T1_EEPKS5_RKS8_
.LEHE132:
	pop	eax
	push	DWORD PTR -384[ebp]
	push	ebx
	mov	ebx, esi
.LEHB133:
	call	_ZNSt7__cxx1112basic_stringIcSt11char_traitsIcESaIcEE6appendEPKc@PLT
.LEHE133:
	pop	ecx
	pop	esi
	push	eax
	push	DWORD PTR -356[ebp]
	call	_ZNSt7__cxx1112basic_stringIcSt11char_traitsIcESaIcEEC1EOS4_@PLT
	add	esp, 12
	push	DWORD PTR -48[ebp]
	push	DWORD PTR -52[ebp]
	push	DWORD PTR -368[ebp]
.LEHB134:
	call	_ZNSt7__cxx1112basic_stringIcSt11char_traitsIcESaIcEE9_M_appendEPKcj@PLT
.LEHE134:
	add	esp, 16
	mov	eax, DWORD PTR -52[ebp]
	cmp	eax, DWORD PTR -348[ebp]
	je	.L1134
	sub	esp, 12
	push	eax
	call	_ZdlPv@PLT
	add	esp, 16
.L1134:
	mov	eax, DWORD PTR -76[ebp]
	cmp	eax, edi
	je	.L1135
	sub	esp, 12
	mov	ebx, DWORD PTR -336[ebp]
	push	eax
	call	_ZdlPv@PLT
	add	esp, 16
.L1135:
	mov	eax, DWORD PTR -372[ebp]
	mov	edx, DWORD PTR -268[ebp]
	mov	ecx, DWORD PTR -264[ebp]
	mov	esi, DWORD PTR -396[ebp]
	mov	DWORD PTR -124[ebp], eax
	add	ecx, edx
	mov	eax, esi
.LEHB135:
	.cfi_escape 0x2e,0
	call	_ZNSt7__cxx1112basic_stringIcSt11char_traitsIcESaIcEE12_M_constructIPcEEvT_S7_St20forward_iterator_tag.constprop.189
.LEHE135:
	mov	ebx, DWORD PTR -400[ebp]
	mov	edx, esi
	mov	eax, ebx
.LEHB136:
	call	_Z8autoNameNSt7__cxx1112basic_stringIcSt11char_traitsIcESaIcEEEb.constprop.186
.LEHE136:
	mov	esi, DWORD PTR -336[ebp]
	sub	esp, 12
	push	5
	lea	eax, .LC59@GOTOFF[esi]
	push	eax
	push	0
	push	0
	push	ebx
	mov	ebx, esi
.LEHB137:
	.cfi_escape 0x2e,0x20
	call	_ZNSt7__cxx1112basic_stringIcSt11char_traitsIcESaIcEE10_M_replaceEjjPKcj@PLT
.LEHE137:
	add	esp, 24
	push	eax
	push	DWORD PTR -344[ebp]
	call	_ZNSt7__cxx1112basic_stringIcSt11char_traitsIcESaIcEEC1EOS4_@PLT
	pop	eax
	lea	eax, .LC62@GOTOFF[esi]
	pop	edx
	push	eax
	push	DWORD PTR -344[ebp]
.LEHB138:
	.cfi_escape 0x2e,0x10
	call	_ZNSt7__cxx1112basic_stringIcSt11char_traitsIcESaIcEE6appendEPKc@PLT
.LEHE138:
	pop	ecx
	pop	esi
	push	eax
	push	DWORD PTR -356[ebp]
	call	_ZNSt7__cxx1112basic_stringIcSt11char_traitsIcESaIcEEC1EOS4_@PLT
	add	esp, 12
	push	DWORD PTR -48[ebp]
	push	DWORD PTR -52[ebp]
	push	DWORD PTR -368[ebp]
.LEHB139:
	call	_ZNSt7__cxx1112basic_stringIcSt11char_traitsIcESaIcEE9_M_appendEPKcj@PLT
.LEHE139:
.L1408:
	add	esp, 16
	mov	eax, DWORD PTR -52[ebp]
	cmp	eax, DWORD PTR -348[ebp]
	je	.L1149
	sub	esp, 12
	push	eax
	call	_ZdlPv@PLT
	add	esp, 16
.L1149:
	mov	eax, DWORD PTR -76[ebp]
	cmp	eax, edi
	je	.L1150
	sub	esp, 12
	mov	ebx, DWORD PTR -336[ebp]
	push	eax
	call	_ZdlPv@PLT
	add	esp, 16
.L1150:
	mov	eax, DWORD PTR -100[ebp]
	cmp	eax, DWORD PTR -376[ebp]
	je	.L1151
	sub	esp, 12
	mov	ebx, DWORD PTR -336[ebp]
	push	eax
	call	_ZdlPv@PLT
	add	esp, 16
.L1151:
	mov	eax, DWORD PTR -124[ebp]
	cmp	eax, DWORD PTR -372[ebp]
	je	.L1152
	sub	esp, 12
	mov	ebx, DWORD PTR -336[ebp]
	push	eax
	call	_ZdlPv@PLT
	add	esp, 16
.L1152:
	mov	ebx, DWORD PTR -336[ebp]
	sub	esp, 8
	lea	eax, .LC63@GOTOFF[ebx]
	push	eax
	push	DWORD PTR -368[ebp]
.LEHB140:
	call	_ZNSt7__cxx1112basic_stringIcSt11char_traitsIcESaIcEE6appendEPKc@PLT
	add	esp, 16
	jmp	.L1129
	.p2align 4,,10
	.p2align 3
.L1412:
	mov	eax, DWORD PTR -52[ebp]
	xor	esi, esi
	jmp	.L1050
	.p2align 4,,10
	.p2align 3
.L1413:
	mov	eax, DWORD PTR -52[ebp]
	xor	esi, esi
	jmp	.L1066
	.p2align 4,,10
	.p2align 3
.L1411:
	mov	eax, DWORD PTR -52[ebp]
	xor	esi, esi
	jmp	.L1034
	.p2align 4,,10
	.p2align 3
.L1096:
	sub	esp, 8
	lea	eax, .LC54@GOTOFF[ebx]
	mov	esi, ebx
	push	eax
	push	DWORD PTR -368[ebp]
	call	_ZNSt7__cxx1112basic_stringIcSt11char_traitsIcESaIcEE6appendEPKc@PLT
	mov	eax, DWORD PTR -372[ebp]
	mov	edx, DWORD PTR -292[ebp]
	add	esp, 16
	mov	ecx, DWORD PTR -288[ebp]
	mov	ebx, DWORD PTR -396[ebp]
	mov	DWORD PTR -124[ebp], eax
	add	ecx, edx
	mov	eax, ebx
	.cfi_escape 0x2e,0
	call	_ZNSt7__cxx1112basic_stringIcSt11char_traitsIcESaIcEE12_M_constructIPcEEvT_S7_St20forward_iterator_tag.constprop.189
.LEHE140:
	mov	edx, ebx
	mov	ebx, DWORD PTR -400[ebp]
	mov	eax, ebx
.LEHB141:
	call	_Z8autoNameNSt7__cxx1112basic_stringIcSt11char_traitsIcESaIcEEEb.constprop.186
.LEHE141:
	sub	esp, 12
	lea	eax, .LC61@GOTOFF[esi]
	push	16
	push	eax
	push	0
	push	0
	push	ebx
	mov	ebx, esi
.LEHB142:
	.cfi_escape 0x2e,0x20
	call	_ZNSt7__cxx1112basic_stringIcSt11char_traitsIcESaIcEE10_M_replaceEjjPKcj@PLT
.LEHE142:
	add	esp, 24
	lea	esi, .LC45@GOTOFF[esi]
	push	eax
	push	DWORD PTR -344[ebp]
	call	_ZNSt7__cxx1112basic_stringIcSt11char_traitsIcESaIcEEC1EOS4_@PLT
	pop	eax
	pop	edx
	push	esi
	push	DWORD PTR -344[ebp]
	mov	DWORD PTR -336[ebp], ebx
.LEHB143:
	.cfi_escape 0x2e,0x10
	call	_ZNSt7__cxx1112basic_stringIcSt11char_traitsIcESaIcEE6appendEPKc@PLT
.LEHE143:
	pop	ecx
	pop	ebx
	push	eax
	push	DWORD PTR -356[ebp]
	mov	ebx, DWORD PTR -336[ebp]
	call	_ZNSt7__cxx1112basic_stringIcSt11char_traitsIcESaIcEEC1EOS4_@PLT
	add	esp, 12
	push	DWORD PTR -48[ebp]
	mov	ebx, DWORD PTR -336[ebp]
	push	DWORD PTR -52[ebp]
	push	DWORD PTR -368[ebp]
.LEHB144:
	call	_ZNSt7__cxx1112basic_stringIcSt11char_traitsIcESaIcEE9_M_appendEPKcj@PLT
.LEHE144:
	add	esp, 16
	mov	eax, DWORD PTR -52[ebp]
	cmp	eax, DWORD PTR -348[ebp]
	je	.L1141
	sub	esp, 12
	mov	ebx, DWORD PTR -336[ebp]
	push	eax
	call	_ZdlPv@PLT
	add	esp, 16
.L1141:
	mov	eax, DWORD PTR -76[ebp]
	cmp	eax, edi
	je	.L1142
	sub	esp, 12
	mov	ebx, DWORD PTR -336[ebp]
	push	eax
	call	_ZdlPv@PLT
	add	esp, 16
.L1142:
	mov	eax, DWORD PTR -100[ebp]
	cmp	eax, DWORD PTR -376[ebp]
	je	.L1143
	sub	esp, 12
	mov	ebx, DWORD PTR -336[ebp]
	push	eax
	call	_ZdlPv@PLT
	add	esp, 16
.L1143:
	mov	eax, DWORD PTR -124[ebp]
	cmp	eax, DWORD PTR -372[ebp]
	je	.L1144
	sub	esp, 12
	mov	ebx, DWORD PTR -336[ebp]
	push	eax
	call	_ZdlPv@PLT
	add	esp, 16
.L1144:
	mov	eax, DWORD PTR -372[ebp]
	mov	edx, DWORD PTR -316[ebp]
	mov	ecx, DWORD PTR -312[ebp]
	mov	ebx, DWORD PTR -396[ebp]
	mov	DWORD PTR -124[ebp], eax
	add	ecx, edx
	mov	eax, ebx
.LEHB145:
	.cfi_escape 0x2e,0
	call	_ZNSt7__cxx1112basic_stringIcSt11char_traitsIcESaIcEE12_M_constructIPcEEvT_S7_St20forward_iterator_tag.constprop.189
.LEHE145:
	mov	edx, ebx
	mov	ebx, DWORD PTR -400[ebp]
	mov	eax, ebx
.LEHB146:
	call	_Z8autoNameNSt7__cxx1112basic_stringIcSt11char_traitsIcESaIcEEEb.constprop.186
.LEHE146:
	mov	edx, DWORD PTR -336[ebp]
	sub	esp, 12
	push	11
	lea	eax, .LC64@GOTOFF[edx]
	push	eax
	push	0
	push	0
	push	ebx
	mov	ebx, edx
.LEHB147:
	.cfi_escape 0x2e,0x20
	call	_ZNSt7__cxx1112basic_stringIcSt11char_traitsIcESaIcEE10_M_replaceEjjPKcj@PLT
.LEHE147:
	add	esp, 24
	mov	ebx, DWORD PTR -336[ebp]
	push	eax
	push	DWORD PTR -344[ebp]
	call	_ZNSt7__cxx1112basic_stringIcSt11char_traitsIcESaIcEEC1EOS4_@PLT
	pop	eax
	pop	edx
	push	esi
	mov	esi, DWORD PTR -336[ebp]
	push	DWORD PTR -344[ebp]
	mov	ebx, esi
.LEHB148:
	.cfi_escape 0x2e,0x10
	call	_ZNSt7__cxx1112basic_stringIcSt11char_traitsIcESaIcEE6appendEPKc@PLT
.LEHE148:
	pop	ecx
	pop	esi
	push	eax
	push	DWORD PTR -356[ebp]
	call	_ZNSt7__cxx1112basic_stringIcSt11char_traitsIcESaIcEEC1EOS4_@PLT
	add	esp, 12
	push	DWORD PTR -48[ebp]
	push	DWORD PTR -52[ebp]
	push	DWORD PTR -368[ebp]
.LEHB149:
	call	_ZNSt7__cxx1112basic_stringIcSt11char_traitsIcESaIcEE9_M_appendEPKcj@PLT
.LEHE149:
	add	esp, 16
	mov	eax, DWORD PTR -52[ebp]
	cmp	eax, DWORD PTR -348[ebp]
	je	.L1145
	sub	esp, 12
	push	eax
	call	_ZdlPv@PLT
	add	esp, 16
.L1145:
	mov	eax, DWORD PTR -76[ebp]
	cmp	eax, edi
	je	.L1146
	sub	esp, 12
	mov	ebx, DWORD PTR -336[ebp]
	push	eax
	call	_ZdlPv@PLT
	add	esp, 16
.L1146:
	mov	eax, DWORD PTR -100[ebp]
	cmp	eax, DWORD PTR -376[ebp]
	je	.L1147
	sub	esp, 12
	mov	ebx, DWORD PTR -336[ebp]
	push	eax
	call	_ZdlPv@PLT
	add	esp, 16
.L1147:
	mov	eax, DWORD PTR -124[ebp]
	cmp	eax, DWORD PTR -372[ebp]
	je	.L1148
	sub	esp, 12
	mov	ebx, DWORD PTR -336[ebp]
	push	eax
	call	_ZdlPv@PLT
	add	esp, 16
.L1148:
	mov	eax, DWORD PTR -372[ebp]
	mov	edx, DWORD PTR -268[ebp]
	mov	ecx, DWORD PTR -264[ebp]
	mov	esi, DWORD PTR -396[ebp]
	mov	DWORD PTR -124[ebp], eax
	add	ecx, edx
	mov	eax, esi
.LEHB150:
	.cfi_escape 0x2e,0
	call	_ZNSt7__cxx1112basic_stringIcSt11char_traitsIcESaIcEE12_M_constructIPcEEvT_S7_St20forward_iterator_tag.constprop.189
.LEHE150:
	mov	ebx, DWORD PTR -400[ebp]
	mov	edx, esi
	mov	eax, ebx
.LEHB151:
	call	_Z8autoNameNSt7__cxx1112basic_stringIcSt11char_traitsIcESaIcEEEb.constprop.186
.LEHE151:
	mov	esi, DWORD PTR -336[ebp]
	sub	esp, 12
	push	5
	lea	eax, .LC59@GOTOFF[esi]
	push	eax
	push	0
	push	0
	push	ebx
	mov	ebx, esi
.LEHB152:
	.cfi_escape 0x2e,0x20
	call	_ZNSt7__cxx1112basic_stringIcSt11char_traitsIcESaIcEE10_M_replaceEjjPKcj@PLT
.LEHE152:
	add	esp, 24
	push	eax
	push	DWORD PTR -344[ebp]
	call	_ZNSt7__cxx1112basic_stringIcSt11char_traitsIcESaIcEEC1EOS4_@PLT
	pop	eax
	lea	eax, .LC62@GOTOFF[esi]
	pop	edx
	push	eax
	push	DWORD PTR -344[ebp]
.LEHB153:
	.cfi_escape 0x2e,0x10
	call	_ZNSt7__cxx1112basic_stringIcSt11char_traitsIcESaIcEE6appendEPKc@PLT
.LEHE153:
	pop	edx
	pop	ecx
	push	eax
	push	DWORD PTR -356[ebp]
	call	_ZNSt7__cxx1112basic_stringIcSt11char_traitsIcESaIcEEC1EOS4_@PLT
	add	esp, 12
	push	DWORD PTR -48[ebp]
	push	DWORD PTR -52[ebp]
	push	DWORD PTR -368[ebp]
.LEHB154:
	call	_ZNSt7__cxx1112basic_stringIcSt11char_traitsIcESaIcEE9_M_appendEPKcj@PLT
.LEHE154:
	jmp	.L1408
.L1421:
	mov	ecx, DWORD PTR 8[eax]
	mov	DWORD PTR -44[ebp], ecx
	mov	ecx, DWORD PTR 12[eax]
	mov	DWORD PTR -40[ebp], ecx
	mov	ecx, DWORD PTR 16[eax]
	mov	DWORD PTR -36[ebp], ecx
	mov	ecx, DWORD PTR 20[eax]
	mov	DWORD PTR -32[ebp], ecx
	jmp	.L1122
.L1419:
	mov	ecx, DWORD PTR 8[eax]
	mov	DWORD PTR -68[ebp], ecx
	mov	ecx, DWORD PTR 12[eax]
	mov	DWORD PTR -64[ebp], ecx
	mov	ecx, DWORD PTR 16[eax]
	mov	DWORD PTR -60[ebp], ecx
	mov	ecx, DWORD PTR 20[eax]
	mov	DWORD PTR -56[ebp], ecx
	jmp	.L1119
.L1418:
	mov	ecx, DWORD PTR 8[eax]
	mov	DWORD PTR -92[ebp], ecx
	mov	ecx, DWORD PTR 12[eax]
	mov	DWORD PTR -88[ebp], ecx
	mov	ecx, DWORD PTR 16[eax]
	mov	DWORD PTR -84[ebp], ecx
	mov	ecx, DWORD PTR 20[eax]
	mov	DWORD PTR -80[ebp], ecx
	jmp	.L1117
.L1416:
	mov	ecx, DWORD PTR 8[eax]
	mov	DWORD PTR -116[ebp], ecx
	mov	ecx, DWORD PTR 12[eax]
	mov	DWORD PTR -112[ebp], ecx
	mov	ecx, DWORD PTR 16[eax]
	mov	DWORD PTR -108[ebp], ecx
	mov	ecx, DWORD PTR 20[eax]
	mov	DWORD PTR -104[ebp], ecx
	jmp	.L1114
.L1415:
	mov	ecx, DWORD PTR 8[eax]
	mov	DWORD PTR -44[ebp], ecx
	mov	ecx, DWORD PTR 12[eax]
	mov	DWORD PTR -40[ebp], ecx
	mov	ecx, DWORD PTR 16[eax]
	mov	DWORD PTR -36[ebp], ecx
	mov	ecx, DWORD PTR 20[eax]
	mov	DWORD PTR -32[ebp], ecx
	jmp	.L1105
.L1254:
	xor	esi, esi
	xor	edi, edi
	jmp	.L1029
.L1422:
	sub	esp, 12
	mov	ebx, eax
	lea	eax, .LC1@GOTOFF[eax]
	push	eax
.LEHB155:
	call	_ZSt20__throw_length_errorPKc@PLT
.LEHE155:
.L1423:
	call	__stack_chk_fail_local
.L1414:
	mov	ebx, DWORD PTR -336[ebp]
	sub	esp, 12
	lea	eax, .LC1@GOTOFF[ebx]
	push	eax
.LEHB156:
	call	_ZSt20__throw_length_errorPKc@PLT
.LEHE156:
.L1417:
	mov	ebx, DWORD PTR -336[ebp]
	sub	esp, 12
	lea	eax, .LC1@GOTOFF[ebx]
	push	eax
.LEHB157:
	call	_ZSt20__throw_length_errorPKc@PLT
.LEHE157:
.L1409:
	sub	esp, 12
	mov	ebx, eax
	lea	eax, .LC1@GOTOFF[eax]
	push	eax
.LEHB158:
	call	_ZSt20__throw_length_errorPKc@PLT
.LEHE158:
.L1420:
	mov	ebx, DWORD PTR -336[ebp]
	sub	esp, 12
	lea	eax, .LC1@GOTOFF[ebx]
	push	eax
.LEHB159:
	call	_ZSt20__throw_length_errorPKc@PLT
.LEHE159:
.L1281:
	mov	esi, eax
	jmp	.L1201
.L1282:
	mov	esi, eax
	jmp	.L1199
.L1298:
	mov	esi, eax
	jmp	.L1227
.L1299:
	mov	esi, eax
	jmp	.L1225
.L1267:
	mov	esi, eax
	jmp	.L1163
.L1271:
	mov	esi, eax
	jmp	.L1171
.L1266:
	mov	esi, eax
	jmp	.L1160
.L1285:
	mov	esi, eax
	jmp	.L1193
.L1305:
	mov	esi, eax
	jmp	.L1245
.L1306:
	mov	esi, eax
	jmp	.L1243
.L1307:
	mov	esi, eax
	jmp	.L1241
.L1308:
	mov	esi, eax
	jmp	.L1239
.L1301:
	mov	esi, eax
	jmp	.L1237
.L1304:
	mov	esi, eax
	jmp	.L1231
.L1302:
	mov	esi, eax
	jmp	.L1235
.L1303:
	mov	esi, eax
	jmp	.L1233
.L1294:
	mov	esi, eax
	jmp	.L1219
.L1295:
	mov	esi, eax
	jmp	.L1217
.L1296:
	mov	esi, eax
	jmp	.L1215
.L1297:
	mov	esi, eax
	jmp	.L1229
.L1286:
	mov	esi, eax
	jmp	.L1191
.L1287:
	mov	esi, eax
	jmp	.L1209
.L1283:
	mov	esi, eax
	jmp	.L1197
.L1289:
	mov	esi, eax
	jmp	.L1205
.L1290:
	mov	esi, eax
	jmp	.L1203
.L1291:
	mov	esi, eax
	jmp	.L1213
.L1288:
	mov	esi, eax
	jmp	.L1207
.L1284:
	mov	esi, eax
	jmp	.L1195
.L1268:
	mov	esi, eax
	jmp	.L1165
.L1273:
	mov	esi, eax
	jmp	.L1177
.L1279:
	mov	esi, eax
	jmp	.L1189
.L1280:
	mov	esi, eax
	jmp	.L1187
.L1277:
	mov	esi, eax
	jmp	.L1185
.L1278:
	mov	esi, eax
	jmp	.L1183
.L1292:
	mov	esi, eax
	jmp	.L1211
.L1293:
	mov	esi, eax
	jmp	.L1221
.L1300:
	mov	esi, eax
	jmp	.L1223
.L1265:
	mov	esi, eax
	jmp	.L1162
.L1275:
	mov	esi, eax
	jmp	.L1181
.L1276:
	mov	esi, eax
	jmp	.L1179
.L1274:
	mov	esi, eax
	jmp	.L1175
.L1269:
	mov	esi, eax
	jmp	.L1167
.L1270:
	mov	esi, eax
	jmp	.L1169
.L1272:
	mov	esi, eax
	jmp	.L1173
	.section	.gcc_except_table
.LLSDA3116:
	.byte	0xff
	.byte	0xff
	.byte	0x1
	.uleb128 .LLSDACSE3116-.LLSDACSB3116
.LLSDACSB3116:
	.uleb128 .LEHB94-.LFB3116
	.uleb128 .LEHE94-.LEHB94
	.uleb128 .L1265-.LFB3116
	.uleb128 0
	.uleb128 .LEHB95-.LFB3116
	.uleb128 .LEHE95-.LEHB95
	.uleb128 .L1266-.LFB3116
	.uleb128 0
	.uleb128 .LEHB96-.LFB3116
	.uleb128 .LEHE96-.LEHB96
	.uleb128 .L1265-.LFB3116
	.uleb128 0
	.uleb128 .LEHB97-.LFB3116
	.uleb128 .LEHE97-.LEHB97
	.uleb128 .L1267-.LFB3116
	.uleb128 0
	.uleb128 .LEHB98-.LFB3116
	.uleb128 .LEHE98-.LEHB98
	.uleb128 .L1265-.LFB3116
	.uleb128 0
	.uleb128 .LEHB99-.LFB3116
	.uleb128 .LEHE99-.LEHB99
	.uleb128 .L1268-.LFB3116
	.uleb128 0
	.uleb128 .LEHB100-.LFB3116
	.uleb128 .LEHE100-.LEHB100
	.uleb128 .L1265-.LFB3116
	.uleb128 0
	.uleb128 .LEHB101-.LFB3116
	.uleb128 .LEHE101-.LEHB101
	.uleb128 .L1269-.LFB3116
	.uleb128 0
	.uleb128 .LEHB102-.LFB3116
	.uleb128 .LEHE102-.LEHB102
	.uleb128 .L1265-.LFB3116
	.uleb128 0
	.uleb128 .LEHB103-.LFB3116
	.uleb128 .LEHE103-.LEHB103
	.uleb128 .L1270-.LFB3116
	.uleb128 0
	.uleb128 .LEHB104-.LFB3116
	.uleb128 .LEHE104-.LEHB104
	.uleb128 .L1265-.LFB3116
	.uleb128 0
	.uleb128 .LEHB105-.LFB3116
	.uleb128 .LEHE105-.LEHB105
	.uleb128 .L1271-.LFB3116
	.uleb128 0
	.uleb128 .LEHB106-.LFB3116
	.uleb128 .LEHE106-.LEHB106
	.uleb128 .L1265-.LFB3116
	.uleb128 0
	.uleb128 .LEHB107-.LFB3116
	.uleb128 .LEHE107-.LEHB107
	.uleb128 .L1272-.LFB3116
	.uleb128 0
	.uleb128 .LEHB108-.LFB3116
	.uleb128 .LEHE108-.LEHB108
	.uleb128 .L1265-.LFB3116
	.uleb128 0
	.uleb128 .LEHB109-.LFB3116
	.uleb128 .LEHE109-.LEHB109
	.uleb128 .L1273-.LFB3116
	.uleb128 0
	.uleb128 .LEHB110-.LFB3116
	.uleb128 .LEHE110-.LEHB110
	.uleb128 .L1274-.LFB3116
	.uleb128 0
	.uleb128 .LEHB111-.LFB3116
	.uleb128 .LEHE111-.LEHB111
	.uleb128 .L1265-.LFB3116
	.uleb128 0
	.uleb128 .LEHB112-.LFB3116
	.uleb128 .LEHE112-.LEHB112
	.uleb128 .L1275-.LFB3116
	.uleb128 0
	.uleb128 .LEHB113-.LFB3116
	.uleb128 .LEHE113-.LEHB113
	.uleb128 .L1276-.LFB3116
	.uleb128 0
	.uleb128 .LEHB114-.LFB3116
	.uleb128 .LEHE114-.LEHB114
	.uleb128 .L1265-.LFB3116
	.uleb128 0
	.uleb128 .LEHB115-.LFB3116
	.uleb128 .LEHE115-.LEHB115
	.uleb128 .L1277-.LFB3116
	.uleb128 0
	.uleb128 .LEHB116-.LFB3116
	.uleb128 .LEHE116-.LEHB116
	.uleb128 .L1278-.LFB3116
	.uleb128 0
	.uleb128 .LEHB117-.LFB3116
	.uleb128 .LEHE117-.LEHB117
	.uleb128 .L1265-.LFB3116
	.uleb128 0
	.uleb128 .LEHB118-.LFB3116
	.uleb128 .LEHE118-.LEHB118
	.uleb128 .L1279-.LFB3116
	.uleb128 0
	.uleb128 .LEHB119-.LFB3116
	.uleb128 .LEHE119-.LEHB119
	.uleb128 .L1280-.LFB3116
	.uleb128 0
	.uleb128 .LEHB120-.LFB3116
	.uleb128 .LEHE120-.LEHB120
	.uleb128 .L1265-.LFB3116
	.uleb128 0
	.uleb128 .LEHB121-.LFB3116
	.uleb128 .LEHE121-.LEHB121
	.uleb128 .L1281-.LFB3116
	.uleb128 0
	.uleb128 .LEHB122-.LFB3116
	.uleb128 .LEHE122-.LEHB122
	.uleb128 .L1282-.LFB3116
	.uleb128 0
	.uleb128 .LEHB123-.LFB3116
	.uleb128 .LEHE123-.LEHB123
	.uleb128 .L1283-.LFB3116
	.uleb128 0
	.uleb128 .LEHB124-.LFB3116
	.uleb128 .LEHE124-.LEHB124
	.uleb128 .L1284-.LFB3116
	.uleb128 0
	.uleb128 .LEHB125-.LFB3116
	.uleb128 .LEHE125-.LEHB125
	.uleb128 .L1285-.LFB3116
	.uleb128 0
	.uleb128 .LEHB126-.LFB3116
	.uleb128 .LEHE126-.LEHB126
	.uleb128 .L1286-.LFB3116
	.uleb128 0
	.uleb128 .LEHB127-.LFB3116
	.uleb128 .LEHE127-.LEHB127
	.uleb128 .L1265-.LFB3116
	.uleb128 0
	.uleb128 .LEHB128-.LFB3116
	.uleb128 .LEHE128-.LEHB128
	.uleb128 .L1287-.LFB3116
	.uleb128 0
	.uleb128 .LEHB129-.LFB3116
	.uleb128 .LEHE129-.LEHB129
	.uleb128 .L1288-.LFB3116
	.uleb128 0
	.uleb128 .LEHB130-.LFB3116
	.uleb128 .LEHE130-.LEHB130
	.uleb128 .L1289-.LFB3116
	.uleb128 0
	.uleb128 .LEHB131-.LFB3116
	.uleb128 .LEHE131-.LEHB131
	.uleb128 .L1290-.LFB3116
	.uleb128 0
	.uleb128 .LEHB132-.LFB3116
	.uleb128 .LEHE132-.LEHB132
	.uleb128 .L1265-.LFB3116
	.uleb128 0
	.uleb128 .LEHB133-.LFB3116
	.uleb128 .LEHE133-.LEHB133
	.uleb128 .L1291-.LFB3116
	.uleb128 0
	.uleb128 .LEHB134-.LFB3116
	.uleb128 .LEHE134-.LEHB134
	.uleb128 .L1292-.LFB3116
	.uleb128 0
	.uleb128 .LEHB135-.LFB3116
	.uleb128 .LEHE135-.LEHB135
	.uleb128 .L1265-.LFB3116
	.uleb128 0
	.uleb128 .LEHB136-.LFB3116
	.uleb128 .LEHE136-.LEHB136
	.uleb128 .L1293-.LFB3116
	.uleb128 0
	.uleb128 .LEHB137-.LFB3116
	.uleb128 .LEHE137-.LEHB137
	.uleb128 .L1294-.LFB3116
	.uleb128 0
	.uleb128 .LEHB138-.LFB3116
	.uleb128 .LEHE138-.LEHB138
	.uleb128 .L1295-.LFB3116
	.uleb128 0
	.uleb128 .LEHB139-.LFB3116
	.uleb128 .LEHE139-.LEHB139
	.uleb128 .L1296-.LFB3116
	.uleb128 0
	.uleb128 .LEHB140-.LFB3116
	.uleb128 .LEHE140-.LEHB140
	.uleb128 .L1265-.LFB3116
	.uleb128 0
	.uleb128 .LEHB141-.LFB3116
	.uleb128 .LEHE141-.LEHB141
	.uleb128 .L1297-.LFB3116
	.uleb128 0
	.uleb128 .LEHB142-.LFB3116
	.uleb128 .LEHE142-.LEHB142
	.uleb128 .L1298-.LFB3116
	.uleb128 0
	.uleb128 .LEHB143-.LFB3116
	.uleb128 .LEHE143-.LEHB143
	.uleb128 .L1299-.LFB3116
	.uleb128 0
	.uleb128 .LEHB144-.LFB3116
	.uleb128 .LEHE144-.LEHB144
	.uleb128 .L1300-.LFB3116
	.uleb128 0
	.uleb128 .LEHB145-.LFB3116
	.uleb128 .LEHE145-.LEHB145
	.uleb128 .L1265-.LFB3116
	.uleb128 0
	.uleb128 .LEHB146-.LFB3116
	.uleb128 .LEHE146-.LEHB146
	.uleb128 .L1301-.LFB3116
	.uleb128 0
	.uleb128 .LEHB147-.LFB3116
	.uleb128 .LEHE147-.LEHB147
	.uleb128 .L1302-.LFB3116
	.uleb128 0
	.uleb128 .LEHB148-.LFB3116
	.uleb128 .LEHE148-.LEHB148
	.uleb128 .L1303-.LFB3116
	.uleb128 0
	.uleb128 .LEHB149-.LFB3116
	.uleb128 .LEHE149-.LEHB149
	.uleb128 .L1304-.LFB3116
	.uleb128 0
	.uleb128 .LEHB150-.LFB3116
	.uleb128 .LEHE150-.LEHB150
	.uleb128 .L1265-.LFB3116
	.uleb128 0
	.uleb128 .LEHB151-.LFB3116
	.uleb128 .LEHE151-.LEHB151
	.uleb128 .L1305-.LFB3116
	.uleb128 0
	.uleb128 .LEHB152-.LFB3116
	.uleb128 .LEHE152-.LEHB152
	.uleb128 .L1306-.LFB3116
	.uleb128 0
	.uleb128 .LEHB153-.LFB3116
	.uleb128 .LEHE153-.LEHB153
	.uleb128 .L1307-.LFB3116
	.uleb128 0
	.uleb128 .LEHB154-.LFB3116
	.uleb128 .LEHE154-.LEHB154
	.uleb128 .L1308-.LFB3116
	.uleb128 0
	.uleb128 .LEHB155-.LFB3116
	.uleb128 .LEHE155-.LEHB155
	.uleb128 .L1265-.LFB3116
	.uleb128 0
	.uleb128 .LEHB156-.LFB3116
	.uleb128 .LEHE156-.LEHB156
	.uleb128 .L1275-.LFB3116
	.uleb128 0
	.uleb128 .LEHB157-.LFB3116
	.uleb128 .LEHE157-.LEHB157
	.uleb128 .L1283-.LFB3116
	.uleb128 0
	.uleb128 .LEHB158-.LFB3116
	.uleb128 .LEHE158-.LEHB158
	.uleb128 .L1265-.LFB3116
	.uleb128 0
	.uleb128 .LEHB159-.LFB3116
	.uleb128 .LEHE159-.LEHB159
	.uleb128 .L1285-.LFB3116
	.uleb128 0
.LLSDACSE3116:
	.text
	.cfi_endproc
	.section	.text.unlikely
	.cfi_startproc
	.cfi_personality 0x9b,DW.ref.__gxx_personality_v0
	.cfi_lsda 0x1b,.LLSDAC3116
	.type	_Z10doMultiplyRi.cold.202, @function
_Z10doMultiplyRi.cold.202:
.LFSB3116:
.L1191:
	.cfi_def_cfa 5, 8
	.cfi_offset 3, -20
	.cfi_offset 5, -8
	.cfi_offset 6, -16
	.cfi_offset 7, -12
	mov	eax, DWORD PTR -52[ebp]
	cmp	eax, DWORD PTR -348[ebp]
	je	.L1193
	sub	esp, 12
	mov	ebx, DWORD PTR -336[ebp]
	push	eax
	call	_ZdlPv@PLT
	add	esp, 16
.L1193:
	mov	eax, DWORD PTR -76[ebp]
	cmp	eax, edi
	je	.L1195
	sub	esp, 12
	mov	ebx, DWORD PTR -336[ebp]
	push	eax
	call	_ZdlPv@PLT
	add	esp, 16
.L1195:
	mov	eax, DWORD PTR -100[ebp]
	cmp	eax, DWORD PTR -376[ebp]
	je	.L1197
	sub	esp, 12
	mov	ebx, DWORD PTR -336[ebp]
	push	eax
	call	_ZdlPv@PLT
	add	esp, 16
.L1197:
	mov	eax, DWORD PTR -124[ebp]
	cmp	eax, DWORD PTR -372[ebp]
	je	.L1199
	sub	esp, 12
	mov	ebx, DWORD PTR -336[ebp]
	push	eax
	call	_ZdlPv@PLT
	add	esp, 16
.L1199:
	mov	eax, DWORD PTR -148[ebp]
	cmp	eax, DWORD PTR -404[ebp]
	je	.L1201
	sub	esp, 12
	mov	ebx, DWORD PTR -336[ebp]
	push	eax
	call	_ZdlPv@PLT
	add	esp, 16
.L1201:
	mov	eax, DWORD PTR -172[ebp]
	cmp	eax, DWORD PTR -392[ebp]
	je	.L1162
	sub	esp, 12
	mov	ebx, DWORD PTR -336[ebp]
	push	eax
	call	_ZdlPv@PLT
	add	esp, 16
.L1162:
	mov	eax, DWORD PTR -196[ebp]
	cmp	eax, DWORD PTR -416[ebp]
	je	.L1247
	sub	esp, 12
	mov	ebx, DWORD PTR -336[ebp]
	push	eax
	call	_ZdlPv@PLT
	add	esp, 16
.L1247:
	mov	eax, DWORD PTR -220[ebp]
	cmp	eax, DWORD PTR -412[ebp]
	je	.L1248
	sub	esp, 12
	mov	ebx, DWORD PTR -336[ebp]
	push	eax
	call	_ZdlPv@PLT
	add	esp, 16
.L1248:
	mov	eax, DWORD PTR -244[ebp]
	cmp	eax, DWORD PTR -340[ebp]
	je	.L1249
	sub	esp, 12
	mov	ebx, DWORD PTR -336[ebp]
	push	eax
	call	_ZdlPv@PLT
	add	esp, 16
.L1249:
	mov	eax, DWORD PTR -268[ebp]
	cmp	eax, DWORD PTR -364[ebp]
	je	.L1250
	sub	esp, 12
	mov	ebx, DWORD PTR -336[ebp]
	push	eax
	call	_ZdlPv@PLT
	add	esp, 16
.L1250:
	mov	eax, DWORD PTR -292[ebp]
	cmp	eax, DWORD PTR -408[ebp]
	je	.L1251
	sub	esp, 12
	mov	ebx, DWORD PTR -336[ebp]
	push	eax
	call	_ZdlPv@PLT
	add	esp, 16
.L1251:
	mov	eax, DWORD PTR -316[ebp]
	cmp	eax, DWORD PTR -360[ebp]
	je	.L1252
	sub	esp, 12
	mov	ebx, DWORD PTR -336[ebp]
	push	eax
	call	_ZdlPv@PLT
	add	esp, 16
.L1252:
	sub	esp, 12
	mov	ebx, DWORD PTR -336[ebp]
	push	esi
.LEHB160:
	call	_Unwind_Resume@PLT
.LEHE160:
.L1223:
	mov	eax, DWORD PTR -52[ebp]
	cmp	eax, DWORD PTR -348[ebp]
	je	.L1225
	sub	esp, 12
	mov	ebx, DWORD PTR -336[ebp]
	push	eax
	call	_ZdlPv@PLT
	add	esp, 16
.L1225:
	mov	eax, DWORD PTR -76[ebp]
	cmp	eax, edi
	je	.L1227
	sub	esp, 12
	mov	ebx, DWORD PTR -336[ebp]
	push	eax
	call	_ZdlPv@PLT
	add	esp, 16
.L1227:
	mov	eax, DWORD PTR -100[ebp]
	cmp	eax, DWORD PTR -376[ebp]
	je	.L1229
	sub	esp, 12
	mov	ebx, DWORD PTR -336[ebp]
	push	eax
	call	_ZdlPv@PLT
	add	esp, 16
.L1229:
	mov	eax, DWORD PTR -124[ebp]
	cmp	eax, DWORD PTR -372[ebp]
	je	.L1162
	sub	esp, 12
	mov	ebx, DWORD PTR -336[ebp]
	push	eax
	call	_ZdlPv@PLT
	add	esp, 16
	jmp	.L1162
.L1163:
	mov	eax, DWORD PTR -52[ebp]
	cmp	eax, DWORD PTR -348[ebp]
	je	.L1162
	sub	esp, 12
	mov	ebx, DWORD PTR -336[ebp]
	push	eax
	call	_ZdlPv@PLT
	add	esp, 16
	jmp	.L1162
.L1171:
	mov	eax, DWORD PTR -52[ebp]
	cmp	eax, DWORD PTR -348[ebp]
	je	.L1162
	sub	esp, 12
	mov	ebx, DWORD PTR -336[ebp]
	push	eax
	call	_ZdlPv@PLT
	add	esp, 16
	jmp	.L1162
.L1160:
	mov	eax, DWORD PTR -52[ebp]
	cmp	eax, DWORD PTR -348[ebp]
	je	.L1162
	sub	esp, 12
	mov	ebx, DWORD PTR -336[ebp]
	push	eax
	call	_ZdlPv@PLT
	add	esp, 16
	jmp	.L1162
.L1239:
	mov	eax, DWORD PTR -52[ebp]
	cmp	eax, DWORD PTR -348[ebp]
	je	.L1241
	sub	esp, 12
	mov	ebx, DWORD PTR -336[ebp]
	push	eax
	call	_ZdlPv@PLT
	add	esp, 16
.L1241:
	mov	eax, DWORD PTR -76[ebp]
	cmp	eax, edi
	je	.L1243
	sub	esp, 12
	mov	ebx, DWORD PTR -336[ebp]
	push	eax
	call	_ZdlPv@PLT
	add	esp, 16
.L1243:
	mov	eax, DWORD PTR -100[ebp]
	cmp	eax, DWORD PTR -376[ebp]
	je	.L1245
	sub	esp, 12
	mov	ebx, DWORD PTR -336[ebp]
	push	eax
	call	_ZdlPv@PLT
	add	esp, 16
.L1245:
	mov	eax, DWORD PTR -124[ebp]
	cmp	eax, DWORD PTR -372[ebp]
	je	.L1162
	sub	esp, 12
	mov	ebx, DWORD PTR -336[ebp]
	push	eax
	call	_ZdlPv@PLT
	add	esp, 16
	jmp	.L1162
.L1231:
	mov	eax, DWORD PTR -52[ebp]
	cmp	eax, DWORD PTR -348[ebp]
	je	.L1233
	sub	esp, 12
	mov	ebx, DWORD PTR -336[ebp]
	push	eax
	call	_ZdlPv@PLT
	add	esp, 16
.L1233:
	mov	eax, DWORD PTR -76[ebp]
	cmp	eax, edi
	je	.L1235
	sub	esp, 12
	mov	ebx, DWORD PTR -336[ebp]
	push	eax
	call	_ZdlPv@PLT
	add	esp, 16
.L1235:
	mov	eax, DWORD PTR -100[ebp]
	cmp	eax, DWORD PTR -376[ebp]
	je	.L1237
	sub	esp, 12
	mov	ebx, DWORD PTR -336[ebp]
	push	eax
	call	_ZdlPv@PLT
	add	esp, 16
.L1237:
	mov	eax, DWORD PTR -124[ebp]
	cmp	eax, DWORD PTR -372[ebp]
	je	.L1162
	sub	esp, 12
	mov	ebx, DWORD PTR -336[ebp]
	push	eax
	call	_ZdlPv@PLT
	add	esp, 16
	jmp	.L1162
.L1215:
	mov	eax, DWORD PTR -52[ebp]
	cmp	eax, DWORD PTR -348[ebp]
	je	.L1217
	sub	esp, 12
	mov	ebx, DWORD PTR -336[ebp]
	push	eax
	call	_ZdlPv@PLT
	add	esp, 16
.L1217:
	mov	eax, DWORD PTR -76[ebp]
	cmp	eax, edi
	je	.L1219
	sub	esp, 12
	mov	ebx, DWORD PTR -336[ebp]
	push	eax
	call	_ZdlPv@PLT
	add	esp, 16
.L1219:
	mov	eax, DWORD PTR -100[ebp]
	cmp	eax, DWORD PTR -376[ebp]
	je	.L1221
	sub	esp, 12
	mov	ebx, DWORD PTR -336[ebp]
	push	eax
	call	_ZdlPv@PLT
	add	esp, 16
.L1221:
	mov	eax, DWORD PTR -124[ebp]
	cmp	eax, DWORD PTR -372[ebp]
	je	.L1162
	sub	esp, 12
	mov	ebx, DWORD PTR -336[ebp]
	push	eax
	call	_ZdlPv@PLT
	add	esp, 16
	jmp	.L1162
.L1203:
	mov	eax, DWORD PTR -52[ebp]
	cmp	eax, DWORD PTR -348[ebp]
	je	.L1205
	sub	esp, 12
	mov	ebx, DWORD PTR -336[ebp]
	push	eax
	call	_ZdlPv@PLT
	add	esp, 16
.L1205:
	mov	eax, DWORD PTR -76[ebp]
	cmp	eax, edi
	je	.L1207
	sub	esp, 12
	mov	ebx, DWORD PTR -336[ebp]
	push	eax
	call	_ZdlPv@PLT
	add	esp, 16
.L1207:
	mov	eax, DWORD PTR -100[ebp]
	cmp	eax, DWORD PTR -376[ebp]
	je	.L1209
	sub	esp, 12
	mov	ebx, DWORD PTR -336[ebp]
	push	eax
	call	_ZdlPv@PLT
	add	esp, 16
.L1209:
	mov	eax, DWORD PTR -124[ebp]
	cmp	eax, DWORD PTR -372[ebp]
	je	.L1162
	sub	esp, 12
	mov	ebx, DWORD PTR -336[ebp]
	push	eax
	call	_ZdlPv@PLT
	add	esp, 16
	jmp	.L1162
.L1211:
	mov	eax, DWORD PTR -52[ebp]
	cmp	eax, DWORD PTR -348[ebp]
	je	.L1213
	sub	esp, 12
	mov	ebx, DWORD PTR -336[ebp]
	push	eax
	call	_ZdlPv@PLT
	add	esp, 16
.L1213:
	mov	eax, DWORD PTR -76[ebp]
	cmp	eax, edi
	je	.L1162
	sub	esp, 12
	mov	ebx, DWORD PTR -336[ebp]
	push	eax
	call	_ZdlPv@PLT
	add	esp, 16
	jmp	.L1162
.L1165:
	mov	eax, DWORD PTR -52[ebp]
	cmp	eax, DWORD PTR -348[ebp]
	je	.L1162
	sub	esp, 12
	mov	ebx, DWORD PTR -336[ebp]
	push	eax
	call	_ZdlPv@PLT
	add	esp, 16
	jmp	.L1162
.L1175:
	mov	eax, DWORD PTR -52[ebp]
	cmp	eax, DWORD PTR -348[ebp]
	je	.L1177
	sub	esp, 12
	mov	ebx, DWORD PTR -336[ebp]
	push	eax
	call	_ZdlPv@PLT
	add	esp, 16
.L1177:
	mov	eax, DWORD PTR -76[ebp]
	cmp	eax, edi
	je	.L1162
	sub	esp, 12
	mov	ebx, DWORD PTR -336[ebp]
	push	eax
	call	_ZdlPv@PLT
	add	esp, 16
	jmp	.L1162
.L1187:
	mov	eax, DWORD PTR -52[ebp]
	cmp	eax, DWORD PTR -348[ebp]
	je	.L1189
	sub	esp, 12
	mov	ebx, DWORD PTR -336[ebp]
	push	eax
	call	_ZdlPv@PLT
	add	esp, 16
.L1189:
	mov	eax, DWORD PTR -76[ebp]
	cmp	eax, edi
	je	.L1162
	sub	esp, 12
	mov	ebx, DWORD PTR -336[ebp]
	push	eax
	call	_ZdlPv@PLT
	add	esp, 16
	jmp	.L1162
.L1183:
	mov	eax, DWORD PTR -52[ebp]
	cmp	eax, DWORD PTR -348[ebp]
	je	.L1185
	sub	esp, 12
	mov	ebx, DWORD PTR -336[ebp]
	push	eax
	call	_ZdlPv@PLT
	add	esp, 16
.L1185:
	mov	eax, DWORD PTR -76[ebp]
	cmp	eax, edi
	je	.L1162
	sub	esp, 12
	mov	ebx, DWORD PTR -336[ebp]
	push	eax
	call	_ZdlPv@PLT
	add	esp, 16
	jmp	.L1162
.L1179:
	mov	eax, DWORD PTR -52[ebp]
	cmp	eax, DWORD PTR -348[ebp]
	je	.L1181
	sub	esp, 12
	mov	ebx, DWORD PTR -336[ebp]
	push	eax
	call	_ZdlPv@PLT
	add	esp, 16
.L1181:
	mov	eax, DWORD PTR -76[ebp]
	cmp	eax, edi
	je	.L1162
	sub	esp, 12
	mov	ebx, DWORD PTR -336[ebp]
	push	eax
	call	_ZdlPv@PLT
	add	esp, 16
	jmp	.L1162
.L1167:
	mov	eax, DWORD PTR -52[ebp]
	cmp	eax, DWORD PTR -348[ebp]
	je	.L1162
	sub	esp, 12
	mov	ebx, DWORD PTR -336[ebp]
	push	eax
	call	_ZdlPv@PLT
	add	esp, 16
	jmp	.L1162
.L1173:
	mov	eax, DWORD PTR -76[ebp]
	cmp	eax, edi
	je	.L1162
	sub	esp, 12
	mov	ebx, DWORD PTR -336[ebp]
	push	eax
	call	_ZdlPv@PLT
	add	esp, 16
	jmp	.L1162
.L1169:
	mov	eax, DWORD PTR -52[ebp]
	cmp	eax, DWORD PTR -348[ebp]
	je	.L1162
	sub	esp, 12
	mov	ebx, DWORD PTR -336[ebp]
	push	eax
	call	_ZdlPv@PLT
	add	esp, 16
	jmp	.L1162
	.cfi_endproc
.LFE3116:
	.section	.gcc_except_table
.LLSDAC3116:
	.byte	0xff
	.byte	0xff
	.byte	0x1
	.uleb128 .LLSDACSEC3116-.LLSDACSBC3116
.LLSDACSBC3116:
	.uleb128 .LEHB160-.LCOLDB65
	.uleb128 .LEHE160-.LEHB160
	.uleb128 0
	.uleb128 0
.LLSDACSEC3116:
	.section	.text.unlikely
	.text
	.size	_Z10doMultiplyRi, .-_Z10doMultiplyRi
	.section	.text.unlikely
	.size	_Z10doMultiplyRi.cold.202, .-_Z10doMultiplyRi.cold.202
.LCOLDE65:
	.text
.LHOTE65:
	.section	.rodata.str1.1
.LC66:
	.string	"div "
.LC67:
	.string	"div dword ["
	.section	.text.unlikely
.LCOLDB68:
	.text
.LHOTB68:
	.p2align 4,,15
	.globl	_Z10doDivisionRi
	.type	_Z10doDivisionRi, @function
_Z10doDivisionRi:
.LFB3117:
	.cfi_startproc
	.cfi_personality 0x9b,DW.ref.__gxx_personality_v0
	.cfi_lsda 0x1b,.LLSDA3117
	call	__x86.get_pc_thunk.ax
	add	eax, OFFSET FLAT:_GLOBAL_OFFSET_TABLE_
	push	ebp
	.cfi_def_cfa_offset 8
	.cfi_offset 5, -8
	mov	ebp, esp
	.cfi_def_cfa_register 5
	push	edi
	push	esi
	.cfi_offset 7, -12
	.cfi_offset 6, -16
	lea	esi, -260[ebp]
	push	ebx
	sub	esp, 412
	.cfi_offset 3, -20
	mov	edi, DWORD PTR 8[ebp]
	mov	DWORD PTR -336[ebp], eax
	mov	DWORD PTR -380[ebp], edi
	mov	edi, DWORD PTR gs:20
	mov	DWORD PTR -28[ebp], edi
	xor	edi, edi
	lea	edi, -308[ebp]
	mov	DWORD PTR -364[ebp], esi
	mov	DWORD PTR -360[ebp], edi
	mov	DWORD PTR -316[ebp], edi
	lea	edi, -284[ebp]
	mov	DWORD PTR -408[ebp], edi
	mov	DWORD PTR -292[ebp], edi
	lea	edi, -236[ebp]
	mov	DWORD PTR -268[ebp], esi
	lea	esi, -212[ebp]
	mov	DWORD PTR -340[ebp], edi
	mov	DWORD PTR -244[ebp], edi
	lea	edi, -188[ebp]
	mov	DWORD PTR -312[ebp], 0
	mov	BYTE PTR -308[ebp], 0
	mov	DWORD PTR -288[ebp], 0
	mov	BYTE PTR -284[ebp], 0
	mov	DWORD PTR -264[ebp], 0
	mov	BYTE PTR -260[ebp], 0
	mov	DWORD PTR -240[ebp], 0
	mov	BYTE PTR -236[ebp], 0
	mov	DWORD PTR -412[ebp], esi
	mov	DWORD PTR -220[ebp], esi
	mov	DWORD PTR -216[ebp], 0
	mov	BYTE PTR -212[ebp], 0
	mov	DWORD PTR -416[ebp], edi
	mov	DWORD PTR -196[ebp], edi
	mov	DWORD PTR -192[ebp], 0
	cmp	DWORD PTR _Z9codbufferB5cxx11@GOTOFF[eax+4], 2147483647
	mov	BYTE PTR -188[ebp], 0
	je	.L1806
	mov	esi, eax
	sub	esp, 4
	lea	eax, .LC53@GOTOFF[eax]
	push	1
	mov	ebx, esi
	push	eax
	mov	DWORD PTR -384[ebp], eax
	lea	eax, _Z9codbufferB5cxx11@GOTOFF[esi]
	push	eax
	mov	DWORD PTR -368[ebp], eax
.LEHB161:
	.cfi_escape 0x2e,0x10
	call	_ZNSt7__cxx1112basic_stringIcSt11char_traitsIcESaIcEE9_M_appendEPKcj@PLT
	mov	eax, DWORD PTR -380[ebp]
	mov	edx, DWORD PTR _Z10parametersB5cxx11@GOTOFF[esi]
	lea	ebx, -164[ebp]
	add	esp, 16
	mov	ecx, DWORD PTR _Z10parametersB5cxx11@GOTOFF[esi+4]
	mov	DWORD PTR -392[ebp], ebx
	mov	eax, DWORD PTR [eax]
	mov	DWORD PTR -172[ebp], ebx
	add	ecx, edx
	mov	DWORD PTR -344[ebp], eax
	lea	edi, -1[eax]
	lea	eax, -172[ebp]
	mov	DWORD PTR -420[ebp], eax
	.cfi_escape 0x2e,0
	call	_ZNSt7__cxx1112basic_stringIcSt11char_traitsIcESaIcEE12_M_constructIPcEEvT_S7_St20forward_iterator_tag.constprop.189
	mov	edx, DWORD PTR -172[ebp]
	test	edi, edi
	jle	.L1651
	mov	eax, DWORD PTR -344[ebp]
	mov	esi, edi
	movzx	eax, BYTE PTR -1[edx+eax]
	cmp	al, 10
	jne	.L1792
	.p2align 4,,10
	.p2align 3
.L1752:
	sub	edi, 1
	je	.L1807
	movzx	eax, BYTE PTR [edx+edi]
	mov	esi, edi
	cmp	al, 10
	je	.L1752
.L1792:
	cmp	al, 32
	je	.L1752
.L1426:
	cmp	edx, DWORD PTR -392[ebp]
	je	.L1430
	sub	esp, 12
	mov	ebx, DWORD PTR -336[ebp]
	push	edx
	call	_ZdlPv@PLT
	add	esp, 16
.L1430:
	mov	ebx, DWORD PTR -336[ebp]
	lea	edx, -44[ebp]
	lea	eax, -52[ebp]
	mov	DWORD PTR -348[ebp], edx
	mov	DWORD PTR -52[ebp], edx
	mov	ecx, DWORD PTR _Z10parametersB5cxx11@GOTOFF[ebx+4]
	mov	edx, DWORD PTR _Z10parametersB5cxx11@GOTOFF[ebx]
	mov	DWORD PTR -356[ebp], eax
	add	ecx, edx
	call	_ZNSt7__cxx1112basic_stringIcSt11char_traitsIcESaIcEE12_M_constructIPcEEvT_S7_St20forward_iterator_tag.constprop.189
.LEHE161:
	mov	eax, DWORD PTR -52[ebp]
	test	edi, edi
	je	.L1652
	movzx	ecx, BYTE PTR [eax+esi]
	mov	BYTE PTR -344[ebp], cl
	cmp	cl, 10
	je	.L1431
	lea	edx, -244[ebp]
	mov	DWORD PTR -372[ebp], edx
	cmp	cl, 32
	jne	.L1432
	jmp	.L1431
	.p2align 4,,10
	.p2align 3
.L1435:
	movzx	ebx, BYTE PTR -344[ebp]
	mov	BYTE PTR [eax+esi], bl
	mov	eax, DWORD PTR -352[ebp]
	mov	DWORD PTR -240[ebp], eax
	mov	eax, DWORD PTR -244[ebp]
	mov	BYTE PTR 1[eax+esi], 0
	sub	edi, 1
	je	.L1808
	mov	eax, DWORD PTR -52[ebp]
	mov	esi, edi
	movzx	ebx, BYTE PTR [eax+edi]
	mov	BYTE PTR -344[ebp], bl
	cmp	bl, 10
	je	.L1431
	cmp	bl, 32
	je	.L1431
.L1432:
	mov	esi, DWORD PTR -240[ebp]
	mov	eax, DWORD PTR -244[ebp]
	mov	edx, 15
	cmp	eax, DWORD PTR -340[ebp]
	cmovne	edx, DWORD PTR -236[ebp]
	lea	ecx, 1[esi]
	mov	DWORD PTR -352[ebp], ecx
	cmp	ecx, edx
	jbe	.L1435
	sub	esp, 12
	mov	ebx, DWORD PTR -336[ebp]
	push	1
	push	0
	push	0
	push	esi
