.intel_syntax noprefix
.file 1 "Tests/IO/Cast.e"
.file 2 "../../IO/cstd.e"
.file 3 "sys.e"
.file 4 "win32.asm.obj"
.file 5 "asm.h"
.file 6 "win32.asm"
.section .text
Code_Start:
.global main
.global Start_Test
Base_START:
.loc 1 3 1
.cfi_startproc 
.cfi_def_cfa_offset 16
Base:
.loc 1 4 11
mov dword ptr [rcx + 0 ], 0
.loc 1 3 1
mov rax, rcx
ret 
ret 
Base_END:


.cfi_endproc 
Mid_START:
.loc 1 7 1
.cfi_startproc 
.cfi_def_cfa_offset 16
Mid:
push rbx
mov rbx, rcx
mov rcx, rbx
call Base
.loc 1 8 7
mov dword ptr [rbx + 0 ], 1
mov ecx, 1074261268
mov dword ptr [rbx + 4 ], ecx
.loc 1 7 1
mov rax, rbx
pop rbx
ret 
pop rbx
ret 
Mid_END:


.cfi_endproc 
test_all_format_casts_START:
.loc 1 17 1
.cfi_startproc 
.cfi_def_cfa_offset 16
test_all_format_casts:
.loc 1 18 8
mov ecx, 1
cvtsi2ss xmm0, ecx
.loc 1 20 10
movss xmm0, xmm0
.loc 1 18 2
cvtsi2sd xmm1, ecx
.loc 1 21 11
movsd xmm1, xmm1
.loc 1 20 2
cvttss2si r8d, xmm0
.loc 1 23 4
mov ecx, r8d
.loc 1 21 2
cvttsd2si r8d, xmm1
.loc 1 24 4
mov ecx, r8d
cvtsd2ss xmm1, xmm1
movss xmm0, xmm1
cvtss2sd xmm0, xmm0
movsd xmm1, xmm0
.loc 1 17 1
ret 
test_all_format_casts_END:


.cfi_endproc 
Start_Test_START:
.loc 1 30 1
.cfi_startproc 
.cfi_def_cfa_offset 16
Start_Test:
sub rsp, 8
.loc 1 31 2
call test_all_format_casts
lea rcx, qword ptr [rsp ]
.loc 1 32 8
mov rcx, rcx
call Mid
.loc 1 9 2
movss xmm0, dword ptr [rsp + 4 ]
cvttss2si ecx, xmm0
.loc 1 33 2
mov eax, ecx
add rsp, 8
ret 
add rsp, 8
.loc 1 30 1
ret 
Start_Test_END:


.cfi_endproc 
main_START:
.loc 1 36 1
.cfi_startproc 
.cfi_def_cfa_offset 16
main:
.loc 1 38 2
mov eax, 1
ret 
.loc 1 36 1
ret 
main_END:


.cfi_endproc 
Code_End:
.section .LINE_TABLE
.LINE_TABLE:
