.intel_syntax noprefix
.file 1 "Tests/IO/Comment.e"
.file 2 "C:\Users\GabenRTX\.Repos/Evie/IO/cstd.e"
.file 3 "C:\Users\GabenRTX\.Repos/Evie/IO/sys.e"
.file 4 "C:\Users\GabenRTX\.Repos/Evie/IO/win32.asm.obj"
.file 5 "C:\Users\GabenRTX\.Repos/Evie/IO/win32.asm"
.file 6 "C:\Users\GabenRTX\.Repos/Evie/IO/STD.e"
.file 7 "C:\Users\GabenRTX\.Repos/Evie/IO/List.e"
Code_Start:
.global main
.global Start_Test
.section .text
banana_START:
.loc 1 7 1
banana:
.cfi_startproc 
.cfi_def_cfa_offset 16
.loc 1 8 2
mov eax, 1
ret 
ret 
banana_END:


.cfi_endproc 
Start_Test_START:
.loc 1 11 1
Start_Test:
.cfi_startproc 
.cfi_def_cfa_offset 16
sub rsp, 16
lea rcx, qword ptr [rsp ]
.loc 1 12 14
mov rcx, rcx
call .List_int_
.loc 1 14 9
call banana
mov eax, eax
add rsp, 16
ret 
add rsp, 16
ret 
Start_Test_END:


.cfi_endproc 
main_START:
.loc 1 17 1
main:
.cfi_startproc 
.cfi_def_cfa_offset 16
.loc 1 18 2
mov eax, 1
ret 
ret 
main_END:


.cfi_endproc 
.memcpy_int__START:
.loc 7 1 1
.memcpy_int_:
.cfi_startproc 
.cfi_def_cfa_offset 16
sub rsp, 20
mov qword ptr [rsp + 0 ], rcx
mov qword ptr [rsp + 8 ], rdx
mov dword ptr [rsp + 16 ], r8d
.loc 2 38 17
mov ecx, 0
cmp ecx, dword ptr [rsp + 16 ]
jge while13_END
while13:
mov r8, qword ptr [rsp + 0 ]
.loc 2 39 9
lea r8, qword ptr [r8 + rcx * 4 ]
mov r9, qword ptr [rsp + 8 ]
mov r9d, dword ptr [r9 + rcx * 4 ]
mov dword ptr [r8 ], r9d
.loc 2 38 33
add ecx, 1
cmp ecx, dword ptr [rsp + 16 ]
jge while13_END
jmp while13
while13_END:
add rsp, 20
.loc 2 41 5
ret 
add rsp, 20
ret 
.memcpy_int__END:


.cfi_endproc 
.List_int__START:
.loc 7 1 1
.List_int_:
.cfi_startproc 
.cfi_def_cfa_offset 16
push rbx
sub rsp, 8
mov qword ptr [rsp + 0 ], rcx
mov rcx, qword ptr [rsp + 0 ]
.loc 7 2 15
mov dword ptr [rcx + 0 ], 1
mov rcx, qword ptr [rsp + 0 ]
.loc 7 3 11
mov dword ptr [rcx + 4 ], 0
mov rbx, qword ptr [rsp + 0 ]
mov rcx, qword ptr [rsp + 0 ]
.loc 7 2 2
mov ecx, dword ptr [rcx + 0 ]
mov r8, rdx
mov eax, 4
mul ecx
mov ecx, eax
mov rdx, r8
.loc 7 4 16
mov ecx, ecx
call _Z8allocatei
mov qword ptr [rbx + 8 ], rax
.loc 7 1 1
mov rax, qword ptr [rsp + 0 ]
add rsp, 8
pop rbx
ret 
add rsp, 8
pop rbx
ret 
.List_int__END:


.cfi_endproc 
Code_End:
.section .data
.section .LINE_TABLE
.LINE_TABLE:
