.intel_syntax noprefix
.file 1 "Tests/IO/Math.e"
.file 2 "Tests/IO/../../IO/cstd.e"
.file 3 "Tests/IO/../../IO/sys.e"
.file 4 "C:/Users/GabenRTX/.Repos/vivid/Vivid/libv/windows_x64/console.asm.obj"
.file 5 "C:/Users/GabenRTX/.Repos/vivid/Vivid/libv/windows_x64/console.asm"
.file 6 "C:/Users/GabenRTX/.Repos/vivid/Vivid/libv/windows_x64/math.asm.obj"
.file 7 "C:/Users/GabenRTX/.Repos/vivid/Vivid/libv/windows_x64/math.asm"
.file 8 "C:/Users/GabenRTX/.Repos/vivid/Vivid/libv/windows_x64/memory.asm.obj"
.file 9 "C:/Users/GabenRTX/.Repos/vivid/Vivid/libv/windows_x64/memory.asm"
.file 10 "C:/Users/GabenRTX/.Repos/vivid/Vivid/libv/windows_x64/system.asm.obj"
.file 11 "C:/Users/GabenRTX/.Repos/vivid/Vivid/libv/windows_x64/system.asm"
.file 12 "Tests/IO/../../IO/STD.e"
.file 13 "Tests/IO/../../IO/Memory.e"
.file 14 "Tests/IO/../../IO/List.e"
Code_Start:
.global main
.global Start_Test
.section .text
sum_START:
.loc 1 3 1
sum:
.cfi_startproc 
.cfi_def_cfa_offset 16
sub rsp, 4
mov dword ptr [rsp + 0 ], ecx
.loc 1 4 11
add dword ptr [rsp + 0 ], 3
mov eax, dword ptr [rsp + 0 ]
add rsp, 4
ret 
add rsp, 4
ret 
sum_END:


.cfi_endproc 
Start_Test_START:
.loc 1 7 1
Start_Test:
.cfi_startproc 
.cfi_def_cfa_offset 16
.loc 1 8 12
mov ecx, 1
add ecx, 2
.loc 1 9 10
mov ecx, ecx
call sum
mov ecx, eax
xor edx, edx
mov eax, 3
div ecx
mov ecx, eax
.loc 1 12 11
add ecx, 3
sub ecx, 3
mov eax, ecx
ret 
mov ecx, 1067030938
movd xmm0, ecx
movss xmm0, xmm0
mov ecx, 1075000115
movd xmm1, ecx
movss xmm1, xmm1
.loc 1 14 9
call Test_Fpu
cvttss2si ecx, xmm0
mov eax, ecx
ret 
.loc 1 16 2
mov eax, -6
ret 
ret 
Start_Test_END:


.cfi_endproc 
Test_Fpu_START:
.loc 1 19 1
Test_Fpu:
.cfi_startproc 
.cfi_def_cfa_offset 16
sub rsp, 8
movss dword ptr [rsp + 0 ], xmm0
movss dword ptr [rsp + 4 ], xmm1
mov ecx, 4608083138725491507
movd xmm0, ecx
movss xmm1, dword ptr [rsp + 4 ]
addss xmm1, xmm0
.loc 1 20 17
movss xmm0, dword ptr [rsp + 0 ]
movss xmm1, dword ptr [rsp + 4 ]
subss xmm1, xmm0
mov ecx, -4614838538166547251
movd xmm0, ecx
movss xmm1, dword ptr [rsp + 4 ]
subss xmm1, xmm0
movss xmm0, dword ptr [rsp + 4 ]
add rsp, 8
ret 
add rsp, 8
ret 
Test_Fpu_END:


.cfi_endproc 
main_START:
.loc 1 23 1
main:
.cfi_startproc 
.cfi_def_cfa_offset 16
.loc 1 24 2
call Start_Test
.loc 1 25 2
mov eax, 1
ret 
ret 
main_END:


.cfi_endproc 
char_START:
.loc 2 11 1
char:
.cfi_startproc 
.cfi_def_cfa_offset 16
sub rsp, 8
mov qword ptr [rsp + 0 ], rcx
mov rax, qword ptr [rsp + 0 ]
add rsp, 8
ret 
add rsp, 8
ret 
char_END:


.cfi_endproc 
____Deallocate_BYTE_POINTER__START:
.loc 14 1 1
____Deallocate_BYTE_POINTER_:
.cfi_startproc 
.cfi_def_cfa_offset 16
sub rsp, 16
mov qword ptr [rsp + 0 ], rcx
.loc 13 18 2
mov rcx, qword ptr [rsp + 0 ]
mov edx, 8
call _V19internal_deallocatePhx
add rsp, 16
ret 
____Deallocate_BYTE_POINTER__END:


.cfi_endproc 
Code_End:
.section .data
.section .LINE_TABLE
.LINE_TABLE:
