.intel_syntax noprefix
.file 1 "Tests/IO/NameSpace.e"
.file 2 "Tests/IO/../../IO/cstd.e"
.file 3 "Tests/IO/../../IO/sys.e"
.file 4 "Tests/IO/../../IO/win32.asm.obj"
.file 5 "Tests/IO/../../IO/win32.asm"
.file 6 "Tests/IO/../../IO/STD.e"
.file 7 "Tests/IO/../../IO/List.e"
Code_Start:
.global main
.global Start_Test
.section .text
Start_Test_START:
.loc 1 30 1
Start_Test:
.cfi_startproc 
.cfi_def_cfa_offset 16
push rbx
sub rsp, 8
lea rcx, qword ptr [rsp ]
.loc 1 31 11
mov rcx, rcx
call Banana
lea rcx, qword ptr [rsp ]
.loc 1 32 14
mov rcx, rcx
call Get
mov ebx, eax
lea rcx, qword ptr [rsp ]
mov rcx, rcx
mov edx, 1
call Set
add ebx, eax
mov ecx, ebx
mov r8d, dword ptr [rip + Banana_Y ]
mov r9d, dword ptr [rip + Apple_Y ]
.loc 1 33 18
add r8d, r9d
sub r8d, ecx
mov eax, r8d
add rsp, 8
pop rbx
ret 
add rsp, 8
pop rbx
ret 
Start_Test_END:


.cfi_endproc 
main_START:
.loc 1 36 1
main:
.cfi_startproc 
.cfi_def_cfa_offset 16
.loc 1 37 2
call Start_Test
.loc 1 38 2
mov eax, 1
ret 
ret 
main_END:


.cfi_endproc 
Get_START:
.loc 1 20 11
Get:
.cfi_startproc 
.cfi_def_cfa_offset 16
sub rsp, 16
mov qword ptr [rsp + 0 ], rcx
mov ecx, dword ptr [rip + Banana_Y ]
mov r8, qword ptr [rsp + 0 ]
.loc 1 12 2
mov r8d, dword ptr [r8 + 0 ]
.loc 1 21 11
add ecx, r8d
mov eax, ecx
add rsp, 16
ret 
add rsp, 16
ret 
Get_END:


.cfi_endproc 
Banana_START:
.loc 1 8 1
Banana:
.cfi_startproc 
.cfi_def_cfa_offset 16
sub rsp, 8
mov qword ptr [rsp + 0 ], rcx
mov rcx, qword ptr [rsp + 0 ]
.loc 1 12 8
mov dword ptr [rcx + 0 ], 1
.loc 1 8 1
mov rax, qword ptr [rsp + 0 ]
add rsp, 8
ret 
add rsp, 8
ret 
Banana_END:


.cfi_endproc 
Set_START:
.loc 1 14 2
Set:
.cfi_startproc 
.cfi_def_cfa_offset 16
sub rsp, 12
mov qword ptr [rsp + 4 ], rcx
mov dword ptr [rsp + 0 ], edx
mov rcx, qword ptr [rsp + 4 ]
.loc 1 15 5
mov r8d, dword ptr [rsp + 0 ]
mov dword ptr [rcx + 0 ], r8d
mov rcx, qword ptr [rsp + 4 ]
.loc 1 16 12
add dword ptr [rcx + 0 ], 1
mov eax, dword ptr [rcx + 0 ]
add rsp, 12
ret 
add rsp, 12
ret 
Set_END:


.cfi_endproc 
Code_End:
.section .data
Banana_Y:
.long 2
Apple_X:
.long 2
Apple_Y:
.long 3
.section .LINE_TABLE
.LINE_TABLE:
